
u8m2.elf:     file format elf32-avr


Disassembly of section .text:

00000000 <__vectors>:
       0:	20 c2       	rjmp	.+1088   	; 0x442 <__ctors_end>
       2:	00 00       	nop
       4:	3a c2       	rjmp	.+1140   	; 0x47a <__bad_interrupt>
       6:	00 00       	nop
       8:	38 c2       	rjmp	.+1136   	; 0x47a <__bad_interrupt>
       a:	00 00       	nop
       c:	36 c2       	rjmp	.+1132   	; 0x47a <__bad_interrupt>
       e:	00 00       	nop
      10:	34 c2       	rjmp	.+1128   	; 0x47a <__bad_interrupt>
      12:	00 00       	nop
      14:	32 c2       	rjmp	.+1124   	; 0x47a <__bad_interrupt>
      16:	00 00       	nop
      18:	30 c2       	rjmp	.+1120   	; 0x47a <__bad_interrupt>
      1a:	00 00       	nop
      1c:	2e c2       	rjmp	.+1116   	; 0x47a <__bad_interrupt>
      1e:	00 00       	nop
      20:	2c c2       	rjmp	.+1112   	; 0x47a <__bad_interrupt>
      22:	00 00       	nop
      24:	2a c2       	rjmp	.+1108   	; 0x47a <__bad_interrupt>
      26:	00 00       	nop
      28:	28 c2       	rjmp	.+1104   	; 0x47a <__bad_interrupt>
      2a:	00 00       	nop
      2c:	26 c2       	rjmp	.+1100   	; 0x47a <__bad_interrupt>
      2e:	00 00       	nop
      30:	24 c2       	rjmp	.+1096   	; 0x47a <__bad_interrupt>
      32:	00 00       	nop
      34:	22 c2       	rjmp	.+1092   	; 0x47a <__bad_interrupt>
      36:	00 00       	nop
      38:	20 c2       	rjmp	.+1088   	; 0x47a <__bad_interrupt>
      3a:	00 00       	nop
      3c:	1e c2       	rjmp	.+1084   	; 0x47a <__bad_interrupt>
      3e:	00 00       	nop
      40:	1c c2       	rjmp	.+1080   	; 0x47a <__bad_interrupt>
      42:	00 00       	nop
      44:	1a c2       	rjmp	.+1076   	; 0x47a <__bad_interrupt>
      46:	00 00       	nop
      48:	18 c2       	rjmp	.+1072   	; 0x47a <__bad_interrupt>
      4a:	00 00       	nop
      4c:	16 c2       	rjmp	.+1068   	; 0x47a <__bad_interrupt>
      4e:	00 00       	nop
      50:	14 c2       	rjmp	.+1064   	; 0x47a <__bad_interrupt>
      52:	00 00       	nop
      54:	12 c2       	rjmp	.+1060   	; 0x47a <__bad_interrupt>
      56:	00 00       	nop
      58:	10 c2       	rjmp	.+1056   	; 0x47a <__bad_interrupt>
      5a:	00 00       	nop
      5c:	0e c2       	rjmp	.+1052   	; 0x47a <__bad_interrupt>
      5e:	00 00       	nop
      60:	0c c2       	rjmp	.+1048   	; 0x47a <__bad_interrupt>
      62:	00 00       	nop
      64:	0a c2       	rjmp	.+1044   	; 0x47a <__bad_interrupt>
      66:	00 00       	nop
      68:	0d 11       	cpse	r16, r13
      6a:	30 11       	cpse	r19, r0
      6c:	32 11       	cpse	r19, r2
      6e:	2e 11       	cpse	r18, r14
      70:	3c 11       	cpse	r19, r12
      72:	0b 11       	cpse	r16, r11
      74:	09 11       	cpse	r16, r9

00000076 <__trampolines_end>:
      76:	00 0f       	add	r16, r16
      78:	f0 00       	.word	0x00f0	; ????
      7a:	00 3f       	cpi	r16, 0xF0	; 240
      7c:	fc 00       	.word	0x00fc	; ????
      7e:	00 ff       	sbrs	r16, 0
      80:	0f 00       	.word	0x000f	; ????
      82:	00 f8       	bld	r0, 0
      84:	07 80       	ldd	r0, Z+7	; 0x07
      86:	07 c0       	rjmp	.+14     	; 0x96 <__trampolines_end+0x20>
      88:	3f e0       	ldi	r19, 0x0F	; 15
      8a:	0f 80       	ldd	r0, Y+7	; 0x07
      8c:	ff f0       	brie	.+62     	; 0xcc <__trampolines_end+0x56>
      8e:	0f 03       	fmul	r16, r23
      90:	ff f0       	brie	.+62     	; 0xd0 <__trampolines_end+0x5a>
      92:	1e 07       	cpc	r17, r30
      94:	ff f8       	.word	0xf8ff	; ????
      96:	3c 1f       	adc	r19, r28
      98:	ff fc       	.word	0xfcff	; ????
      9a:	38 3f       	cpi	r19, 0xF8	; 248
      9c:	ff fc       	.word	0xfcff	; ????
      9e:	78 3f       	cpi	r23, 0xF8	; 248
      a0:	ff fe       	.word	0xfeff	; ????
      a2:	70 7f       	andi	r23, 0xF0	; 240
      a4:	ff fe       	.word	0xfeff	; ????
      a6:	61 ff       	sbrs	r22, 1
      a8:	ff fe       	.word	0xfeff	; ????
      aa:	e1 ff       	sbrs	r30, 1
      ac:	ff ff       	.word	0xffff	; ????
      ae:	c7 ff       	sbrs	r28, 7
      b0:	ff ff       	.word	0xffff	; ????
      b2:	cf ff       	.word	0xffcf	; ????
      b4:	ff ff       	.word	0xffff	; ????
      b6:	ff ff       	.word	0xffff	; ????
      b8:	ff ff       	.word	0xffff	; ????
      ba:	ff ff       	.word	0xffff	; ????
      bc:	ff ff       	.word	0xffff	; ????
      be:	ff ff       	.word	0xffff	; ????
      c0:	ff ff       	.word	0xffff	; ????
      c2:	7f ff       	.word	0xff7f	; ????
      c4:	ff fe       	.word	0xfeff	; ????
      c6:	7f ff       	.word	0xff7f	; ????
      c8:	ff fe       	.word	0xfeff	; ????
      ca:	7f ff       	.word	0xff7f	; ????
      cc:	ff fe       	.word	0xfeff	; ????
      ce:	3f ff       	.word	0xff3f	; ????
      d0:	ff fc       	.word	0xfcff	; ????
      d2:	3f ff       	.word	0xff3f	; ????
      d4:	ff fc       	.word	0xfcff	; ????
      d6:	1f ff       	.word	0xff1f	; ????
      d8:	ff f8       	.word	0xf8ff	; ????
      da:	0f ff       	.word	0xff0f	; ????
      dc:	ff f0       	brie	.+62     	; 0x11c <u8g_dev_st7920_128x64_init_seq+0x16>
      de:	0f ff       	.word	0xff0f	; ????
      e0:	ff f0       	brie	.+62     	; 0x120 <u8g_font_5x8r+0x3>
      e2:	07 ff       	sbrs	r16, 7
      e4:	ff e0       	ldi	r31, 0x0F	; 15
      e6:	01 ff       	sbrs	r16, 1
      e8:	ff 00       	.word	0x00ff	; ????
      ea:	00 ff       	sbrs	r16, 0
      ec:	ff 00       	.word	0x00ff	; ????
      ee:	00 3f       	cpi	r16, 0xF0	; 240
      f0:	fc 00       	.word	0x00fc	; ????
      f2:	00 03       	mulsu	r16, r16
      f4:	e0 00       	.word	0x00e0	; ????

000000f6 <u8g_avr_port_P>:
      f6:	00 00 25 00 28 00 2b 00                             ..%.(.+.

000000fe <u8g_avr_ddr_P>:
      fe:	00 00 24 00 27 00 2a 00                             ..$.'.*.

00000106 <u8g_dev_st7920_128x64_init_seq>:
     106:	ff d0 ff e0 ff cf ff 64 ff d1 ff 32 38 0c 06 02     .......d...28...
     116:	01 ff 64 ff d0 ff fe                                ..d....

0000011d <u8g_font_5x8r>:
     11d:	01 05 08 00 ff 06 01 21 02 35 20 7f ff 07 ff 06     .......!.5 .....
     12d:	ff 09 00 50 22 16 56 80 80 80 80 00 80 15 33 53     ...P".V.......3S
     13d:	a0 a0 a0 02 57 57 50 50 f8 50 f8 50 50 02 57 57     ....WWPP.P.PP.WW
     14d:	20 70 a0 70 28 70 20 13 35 55 80 a0 40 a0 20 02      p.p(p .5U..@. .
     15d:	47 57 40 a0 a0 40 a0 a0 50 25 13 53 80 80 80 12     GW@..@..P%.S....
     16d:	26 56 40 80 80 80 80 40 12 26 56 80 40 40 40 40     &V@....@.&V.@@@@
     17d:	80 02 45 55 90 60 f0 60 90 02 55 55 20 20 f8 20     ..EU.`.`..UU  . 
     18d:	20 11 33 53 60 40 80 04 41 51 f0 11 33 53 40 e0      .3S`@..AQ..3S@.
     19d:	40 02 46 56 10 10 20 40 80 80 12 36 56 40 a0 a0     @.FV.. @...6V@..
     1ad:	a0 a0 40 12 36 56 40 c0 40 40 40 e0 02 46 56 60     ..@.6V@.@@@..FV`
     1bd:	90 10 60 80 f0 02 46 56 f0 20 60 10 90 60 02 46     ..`...FV. `..`.F
     1cd:	56 20 60 a0 f0 20 20 02 46 56 f0 80 e0 10 90 60     V `..  .FV.....`
     1dd:	02 46 56 60 80 e0 90 90 60 02 46 56 f0 10 20 20     .FV`....`.FV..  
     1ed:	40 40 02 46 56 60 90 60 90 90 60 02 46 56 60 90     @@.FV`.`..`.FV`.
     1fd:	90 70 10 60 12 25 55 c0 c0 00 c0 c0 11 36 56 60     .p.`.%U......6V`
     20d:	60 00 60 40 80 12 36 56 20 40 80 80 40 20 03 43     `.`@..6V @..@ .C
     21d:	53 f0 00 f0 12 36 56 80 40 20 20 40 80 12 36 56     S....6V.@  @..6V
     22d:	40 a0 20 40 00 40 01 58 58 30 48 98 a8 a8 90 40     @. @.@.XX0H....@
     23d:	30 02 46 56 60 90 90 f0 90 90 02 46 56 e0 90 e0     0.FV`......FV...
     24d:	90 90 e0 02 46 56 60 90 80 80 90 60 02 46 56 e0     ....FV`....`.FV.
     25d:	90 90 90 90 e0 02 46 56 f0 80 e0 80 80 f0 02 46     ......FV.......F
     26d:	56 f0 80 e0 80 80 80 02 46 56 60 90 80 b0 90 60     V.......FV`....`
     27d:	02 46 56 90 90 f0 90 90 90 12 36 56 e0 40 40 40     .FV.......6V.@@@
     28d:	40 e0 02 46 56 70 20 20 20 a0 40 02 46 56 90 a0     @..FVp   .@.FV..
     29d:	c0 a0 a0 90 02 46 56 80 80 80 80 80 f0 02 46 56     .....FV.......FV
     2ad:	90 f0 f0 90 90 90 02 46 56 90 d0 f0 b0 b0 90 02     .......FV.......
     2bd:	46 56 60 90 90 90 90 60 02 46 56 e0 90 90 e0 80     FV`....`.FV.....
     2cd:	80 01 47 57 60 90 90 d0 b0 60 10 02 46 56 e0 90     ..GW`....`..FV..
     2dd:	90 e0 90 90 02 46 56 60 90 40 20 90 60 12 36 56     .....FV`.@ .`.6V
     2ed:	e0 40 40 40 40 40 02 46 56 90 90 90 90 90 60 02     .@@@@@.FV.....`.
     2fd:	46 56 90 90 90 90 60 60 02 46 56 90 90 90 f0 f0     FV....``.FV.....
     30d:	90 02 46 56 90 90 60 60 90 90 02 56 56 88 88 50     ..FV..``...VV..P
     31d:	20 20 20 02 46 56 f0 10 20 40 80 f0 12 36 56 e0        .FV.. @...6V.
     32d:	80 80 80 80 e0 02 46 56 80 80 40 20 10 10 12 36     ......FV..@ ...6
     33d:	56 e0 20 20 20 20 e0 16 32 52 40 a0 01 41 51 f0     V.    ..2R@..AQ.
     34d:	16 22 52 80 40 02 44 54 70 90 90 70 02 46 56 80     ."R.@.DTp..p.FV.
     35d:	80 e0 90 90 e0 12 34 54 60 80 80 60 02 46 56 10     ......4T`..`.FV.
     36d:	10 70 90 90 70 02 44 54 60 b0 c0 60 02 46 56 20     .p..p.DT`..`.FV 
     37d:	50 40 e0 40 40 01 45 55 60 90 70 10 60 02 46 56     P@.@@.EU`.p.`.FV
     38d:	80 80 e0 90 90 90 12 36 56 40 00 c0 40 40 e0 11     .......6V@..@@..
     39d:	37 57 20 00 20 20 20 a0 40 02 46 56 80 80 90 e0     7W .   .@.FV....
     3ad:	90 90 12 36 56 c0 40 40 40 40 e0 02 54 54 d0 a8     ...6V.@@@@..TT..
     3bd:	a8 a8 02 44 54 e0 90 90 90 02 44 54 60 90 90 60     ...DT.....DT`..`
     3cd:	01 45 55 e0 90 e0 80 80 01 45 55 70 90 70 10 10     .EU......EUp.p..
     3dd:	02 44 54 a0 d0 80 80 12 34 54 60 c0 20 c0 02 46     .DT.....4T`. ..F
     3ed:	56 40 40 e0 40 50 20 02 44 54 90 90 90 70 12 34     V@@.@P .DT...p.4
     3fd:	54 a0 a0 a0 40 02 54 54 88 a8 a8 50 02 44 54 90     T...@.TT...P.DT.
     40d:	60 60 90 01 45 55 90 90 70 90 60 02 44 54 f0 20     ``..EU..p.`.DT. 
     41d:	40 f0 02 47 57 30 40 20 c0 20 40 30 22 16 56 80     @..GW0@ . @0".V.
     42d:	80 80 80 80 80 02 47 57 c0 20 40 30 40 20 c0 06     ......GW. @0@ ..
     43d:	42 52 50 a0 ff                                      BRP..

00000442 <__ctors_end>:
     442:	11 24       	eor	r1, r1
     444:	1f be       	out	0x3f, r1	; 63
     446:	cf ef       	ldi	r28, 0xFF	; 255
     448:	d4 e0       	ldi	r29, 0x04	; 4
     44a:	de bf       	out	0x3e, r29	; 62
     44c:	cd bf       	out	0x3d, r28	; 61

0000044e <__do_copy_data>:
     44e:	11 e0       	ldi	r17, 0x01	; 1
     450:	a0 e0       	ldi	r26, 0x00	; 0
     452:	b1 e0       	ldi	r27, 0x01	; 1
     454:	e0 e6       	ldi	r30, 0x60	; 96
     456:	f8 e2       	ldi	r31, 0x28	; 40
     458:	02 c0       	rjmp	.+4      	; 0x45e <__do_copy_data+0x10>
     45a:	05 90       	lpm	r0, Z+
     45c:	0d 92       	st	X+, r0
     45e:	a2 3c       	cpi	r26, 0xC2	; 194
     460:	b1 07       	cpc	r27, r17
     462:	d9 f7       	brne	.-10     	; 0x45a <__do_copy_data+0xc>

00000464 <__do_clear_bss>:
     464:	22 e0       	ldi	r18, 0x02	; 2
     466:	a2 ec       	ldi	r26, 0xC2	; 194
     468:	b1 e0       	ldi	r27, 0x01	; 1
     46a:	01 c0       	rjmp	.+2      	; 0x46e <.do_clear_bss_start>

0000046c <.do_clear_bss_loop>:
     46c:	1d 92       	st	X+, r1

0000046e <.do_clear_bss_start>:
     46e:	a7 39       	cpi	r26, 0x97	; 151
     470:	b2 07       	cpc	r27, r18
     472:	e1 f7       	brne	.-8      	; 0x46c <.do_clear_bss_loop>
     474:	ae d2       	rcall	.+1372   	; 0x9d2 <main>
     476:	0c 94 2e 14 	jmp	0x285c	; 0x285c <_exit>

0000047a <__bad_interrupt>:
     47a:	c2 cd       	rjmp	.-1148   	; 0x0 <__vectors>

0000047c <u8g_setup>:
unsigned char win = 1; 
unsigned int pos_x = INIT_X;
unsigned int pos_y = INIT_Y;

void u8g_setup(void)
{  
     47c:	cf 92       	push	r12
     47e:	ef 92       	push	r14
     480:	0f 93       	push	r16
     482:	cf 93       	push	r28
     484:	df 93       	push	r29
     486:	1f 92       	push	r1
     488:	cd b7       	in	r28, 0x3d	; 61
     48a:	de b7       	in	r29, 0x3e	; 62
	u8g_InitSPI(&u8g, &u8g_dev_st7920_128x64_sw_spi, 
     48c:	64 e0       	ldi	r22, 0x04	; 4
     48e:	81 e0       	ldi	r24, 0x01	; 1
     490:	9a d4       	rcall	.+2356   	; 0xdc6 <u8g_Pin>
     492:	08 2f       	mov	r16, r24
     494:	65 e0       	ldi	r22, 0x05	; 5
     496:	81 e0       	ldi	r24, 0x01	; 1
     498:	96 d4       	rcall	.+2348   	; 0xdc6 <u8g_Pin>
     49a:	28 2f       	mov	r18, r24
     49c:	67 e0       	ldi	r22, 0x07	; 7
     49e:	81 e0       	ldi	r24, 0x01	; 1
     4a0:	29 83       	std	Y+1, r18	; 0x01
     4a2:	91 d4       	rcall	.+2338   	; 0xdc6 <u8g_Pin>
     4a4:	48 2f       	mov	r20, r24
     4a6:	cc 24       	eor	r12, r12
     4a8:	ca 94       	dec	r12
     4aa:	ee 24       	eor	r14, r14
     4ac:	ea 94       	dec	r14
     4ae:	29 81       	ldd	r18, Y+1	; 0x01
     4b0:	61 e6       	ldi	r22, 0x61	; 97
     4b2:	71 e0       	ldi	r23, 0x01	; 1
     4b4:	82 e5       	ldi	r24, 0x52	; 82
     4b6:	92 e0       	ldi	r25, 0x02	; 2
     4b8:	0e 94 0f 0b 	call	0x161e	; 0x161e <u8g_InitSPI>
     4bc:	0f 90       	pop	r0
     4be:	df 91       	pop	r29
     4c0:	cf 91       	pop	r28
		        PN(1, 7), PN(1, 5), PN(1, 4), U8G_PIN_NONE, U8G_PIN_NONE);
}
     4c2:	0f 91       	pop	r16
     4c4:	ef 90       	pop	r14
     4c6:	cf 90       	pop	r12
     4c8:	08 95       	ret

000004ca <sys_init>:

void sys_init(void)
{
  /* minimal prescaler (max system speed) */
  CLKPR = 0x80;
     4ca:	e1 e6       	ldi	r30, 0x61	; 97
     4cc:	f0 e0       	ldi	r31, 0x00	; 0
     4ce:	80 e8       	ldi	r24, 0x80	; 128
     4d0:	80 83       	st	Z, r24
  CLKPR = 0x00;
     4d2:	10 82       	st	Z, r1
     4d4:	08 95       	ret

000004d6 <draw_frame>:
}

void draw_frame(void)
{
     4d6:	0f 93       	push	r16
	u8g_DrawLine(&u8g, MIN, MIN, MIN, MAX_Y);
     4d8:	0f e3       	ldi	r16, 0x3F	; 63
     4da:	20 e0       	ldi	r18, 0x00	; 0
     4dc:	40 e0       	ldi	r20, 0x00	; 0
     4de:	60 e0       	ldi	r22, 0x00	; 0
     4e0:	82 e5       	ldi	r24, 0x52	; 82
     4e2:	92 e0       	ldi	r25, 0x02	; 2
     4e4:	35 d7       	rcall	.+3690   	; 0x1350 <u8g_DrawLine>
     4e6:	00 e0       	ldi	r16, 0x00	; 0
	u8g_DrawLine(&u8g, MIN, MIN, MAX_X, MIN);
     4e8:	2f e7       	ldi	r18, 0x7F	; 127
     4ea:	40 e0       	ldi	r20, 0x00	; 0
     4ec:	60 e0       	ldi	r22, 0x00	; 0
     4ee:	82 e5       	ldi	r24, 0x52	; 82
     4f0:	92 e0       	ldi	r25, 0x02	; 2
     4f2:	2e d7       	rcall	.+3676   	; 0x1350 <u8g_DrawLine>
     4f4:	0f e3       	ldi	r16, 0x3F	; 63
     4f6:	2f e7       	ldi	r18, 0x7F	; 127
	u8g_DrawLine(&u8g, MIN, MAX_Y, MAX_X, MAX_Y);
     4f8:	4f e3       	ldi	r20, 0x3F	; 63
     4fa:	60 e0       	ldi	r22, 0x00	; 0
     4fc:	82 e5       	ldi	r24, 0x52	; 82
     4fe:	92 e0       	ldi	r25, 0x02	; 2
     500:	27 d7       	rcall	.+3662   	; 0x1350 <u8g_DrawLine>
     502:	2f e7       	ldi	r18, 0x7F	; 127
     504:	40 e0       	ldi	r20, 0x00	; 0
     506:	6f e7       	ldi	r22, 0x7F	; 127
	u8g_DrawLine(&u8g, MAX_X, MIN, MAX_X, MAX_Y);
     508:	82 e5       	ldi	r24, 0x52	; 82
     50a:	92 e0       	ldi	r25, 0x02	; 2
     50c:	21 d7       	rcall	.+3650   	; 0x1350 <u8g_DrawLine>
     50e:	0f 91       	pop	r16
     510:	08 95       	ret

00000512 <draw_start>:
}

/* Ecanul de start */
void draw_start(void)
{
     512:	ef 92       	push	r14
     514:	ff 92       	push	r15
     516:	0f 93       	push	r16
	/* rotesc ecranul cu 180 de grade: 
	 * datorita pozitiei in care l-am lipit 
	 */
	u8g_SetRot180(&u8g);
     518:	82 e5       	ldi	r24, 0x52	; 82
     51a:	92 e0       	ldi	r25, 0x02	; 2
     51c:	0e 94 39 0d 	call	0x1a72	; 0x1a72 <u8g_SetRot180>
	u8g_SetFont(&u8g, u8g_font_5x8r);
     520:	6d e1       	ldi	r22, 0x1D	; 29
     522:	71 e0       	ldi	r23, 0x01	; 1
     524:	82 e5       	ldi	r24, 0x52	; 82
     526:	92 e0       	ldi	r25, 0x02	; 2
     528:	00 d7       	rcall	.+3584   	; 0x132a <u8g_SetFont>
     52a:	2b e7       	ldi	r18, 0x7B	; 123
	u8g_DrawStr(&u8g, 10, 55, "Press button to start ");
     52c:	31 e0       	ldi	r19, 0x01	; 1
     52e:	47 e3       	ldi	r20, 0x37	; 55
     530:	6a e0       	ldi	r22, 0x0A	; 10
     532:	82 e5       	ldi	r24, 0x52	; 82
     534:	92 e0       	ldi	r25, 0x02	; 2
     536:	74 d6       	rcall	.+3304   	; 0x1220 <u8g_DrawStr>
     538:	86 e7       	ldi	r24, 0x76	; 118
     53a:	e8 2e       	mov	r14, r24
	u8g_DrawBitmapP(&u8g, 70, 0, 4, 32, ball);
     53c:	80 e0       	ldi	r24, 0x00	; 0
     53e:	f8 2e       	mov	r15, r24
     540:	00 e2       	ldi	r16, 0x20	; 32
     542:	24 e0       	ldi	r18, 0x04	; 4
     544:	40 e0       	ldi	r20, 0x00	; 0
     546:	66 e4       	ldi	r22, 0x46	; 70
     548:	82 e5       	ldi	r24, 0x52	; 82
     54a:	92 e0       	ldi	r25, 0x02	; 2
     54c:	9a d2       	rcall	.+1332   	; 0xa82 <u8g_DrawBitmapP>
     54e:	0c e3       	ldi	r16, 0x3C	; 60
     550:	23 e0       	ldi	r18, 0x03	; 3
     552:	4d e2       	ldi	r20, 0x2D	; 45
	u8g_DrawLine(&u8g, 3, 45, 3, 60);
     554:	63 e0       	ldi	r22, 0x03	; 3
     556:	82 e5       	ldi	r24, 0x52	; 82
     558:	92 e0       	ldi	r25, 0x02	; 2
     55a:	fa d6       	rcall	.+3572   	; 0x1350 <u8g_DrawLine>
     55c:	2b e7       	ldi	r18, 0x7B	; 123
     55e:	4c e3       	ldi	r20, 0x3C	; 60
     560:	63 e0       	ldi	r22, 0x03	; 3
     562:	82 e5       	ldi	r24, 0x52	; 82
	u8g_DrawLine(&u8g, 3, 60, 123, 60);
     564:	92 e0       	ldi	r25, 0x02	; 2
     566:	f4 d6       	rcall	.+3560   	; 0x1350 <u8g_DrawLine>
     568:	0d e2       	ldi	r16, 0x2D	; 45
     56a:	2b e7       	ldi	r18, 0x7B	; 123
     56c:	4c e3       	ldi	r20, 0x3C	; 60
     56e:	6b e7       	ldi	r22, 0x7B	; 123
     570:	82 e5       	ldi	r24, 0x52	; 82
	u8g_DrawLine(&u8g, 123, 60, 123, 45);
     572:	92 e0       	ldi	r25, 0x02	; 2
     574:	ed d6       	rcall	.+3546   	; 0x1350 <u8g_DrawLine>
     576:	23 e0       	ldi	r18, 0x03	; 3
     578:	4d e2       	ldi	r20, 0x2D	; 45
     57a:	6b e7       	ldi	r22, 0x7B	; 123
     57c:	82 e5       	ldi	r24, 0x52	; 82
     57e:	92 e0       	ldi	r25, 0x02	; 2
     580:	e7 d6       	rcall	.+3534   	; 0x1350 <u8g_DrawLine>
	u8g_DrawLine(&u8g, 123, 45, 3, 45);
     582:	82 e5       	ldi	r24, 0x52	; 82
     584:	92 e0       	ldi	r25, 0x02	; 2
     586:	0e 94 20 0e 	call	0x1c40	; 0x1c40 <u8g_SetScale2x2>
     58a:	22 e9       	ldi	r18, 0x92	; 146
     58c:	31 e0       	ldi	r19, 0x01	; 1
     58e:	4a e0       	ldi	r20, 0x0A	; 10

	u8g_SetScale2x2(&u8g);
     590:	64 e0       	ldi	r22, 0x04	; 4
     592:	82 e5       	ldi	r24, 0x52	; 82
     594:	92 e0       	ldi	r25, 0x02	; 2
     596:	44 d6       	rcall	.+3208   	; 0x1220 <u8g_DrawStr>
	u8g_DrawStr(&u8g, 4, 10, "Teeter");
     598:	29 e9       	ldi	r18, 0x99	; 153
     59a:	31 e0       	ldi	r19, 0x01	; 1
     59c:	44 e1       	ldi	r20, 0x14	; 20
     59e:	6a e0       	ldi	r22, 0x0A	; 10
     5a0:	82 e5       	ldi	r24, 0x52	; 82
     5a2:	92 e0       	ldi	r25, 0x02	; 2
     5a4:	3d d6       	rcall	.+3194   	; 0x1220 <u8g_DrawStr>
     5a6:	82 e5       	ldi	r24, 0x52	; 82
	u8g_DrawStr(&u8g, 10, 20, "BALL");
     5a8:	92 e0       	ldi	r25, 0x02	; 2
     5aa:	0e 94 11 0e 	call	0x1c22	; 0x1c22 <u8g_UndoScale>
     5ae:	0f 91       	pop	r16
     5b0:	ff 90       	pop	r15
     5b2:	ef 90       	pop	r14
     5b4:	08 95       	ret

000005b6 <draw_end>:
	u8g_UndoScale(&u8g);
}

/*Ecranul de sfarsit*/
void draw_end(int x)
{
     5b6:	cf 93       	push	r28
     5b8:	df 93       	push	r29
     5ba:	ec 01       	movw	r28, r24
	u8g_SetRot180(&u8g);
     5bc:	82 e5       	ldi	r24, 0x52	; 82
     5be:	92 e0       	ldi	r25, 0x02	; 2
     5c0:	0e 94 39 0d 	call	0x1a72	; 0x1a72 <u8g_SetRot180>
	u8g_SetFont(&u8g, u8g_font_5x8r);
     5c4:	6d e1       	ldi	r22, 0x1D	; 29
     5c6:	71 e0       	ldi	r23, 0x01	; 1
     5c8:	82 e5       	ldi	r24, 0x52	; 82
     5ca:	92 e0       	ldi	r25, 0x02	; 2
     5cc:	ae d6       	rcall	.+3420   	; 0x132a <u8g_SetFont>
     5ce:	83 df       	rcall	.-250    	; 0x4d6 <draw_frame>
	draw_frame();
     5d0:	82 e5       	ldi	r24, 0x52	; 82
     5d2:	92 e0       	ldi	r25, 0x02	; 2
	
	u8g_SetScale2x2(&u8g);
     5d4:	0e 94 20 0e 	call	0x1c40	; 0x1c40 <u8g_SetScale2x2>
     5d8:	cd 2b       	or	r28, r29
     5da:	39 f0       	breq	.+14     	; 0x5ea <draw_end+0x34>
	if (x)
     5dc:	2e e9       	ldi	r18, 0x9E	; 158
     5de:	31 e0       	ldi	r19, 0x01	; 1
		u8g_DrawStr(&u8g, 14, 18, "You win!");
     5e0:	42 e1       	ldi	r20, 0x12	; 18
     5e2:	6e e0       	ldi	r22, 0x0E	; 14
     5e4:	82 e5       	ldi	r24, 0x52	; 82
     5e6:	92 e0       	ldi	r25, 0x02	; 2
     5e8:	1b d6       	rcall	.+3126   	; 0x1220 <u8g_DrawStr>
     5ea:	82 e5       	ldi	r24, 0x52	; 82
     5ec:	92 e0       	ldi	r25, 0x02	; 2
     5ee:	0e 94 11 0e 	call	0x1c22	; 0x1c22 <u8g_UndoScale>
	u8g_UndoScale(&u8g);
     5f2:	27 ea       	ldi	r18, 0xA7	; 167
     5f4:	31 e0       	ldi	r19, 0x01	; 1
     5f6:	47 e3       	ldi	r20, 0x37	; 55

	u8g_DrawStr(&u8g, 15, 55, "Press button to play");
     5f8:	6f e0       	ldi	r22, 0x0F	; 15
     5fa:	82 e5       	ldi	r24, 0x52	; 82
     5fc:	92 e0       	ldi	r25, 0x02	; 2
     5fe:	10 d6       	rcall	.+3104   	; 0x1220 <u8g_DrawStr>
     600:	2c eb       	ldi	r18, 0xBC	; 188
     602:	31 e0       	ldi	r19, 0x01	; 1
     604:	4d e3       	ldi	r20, 0x3D	; 61
     606:	62 e3       	ldi	r22, 0x32	; 50
	u8g_DrawStr(&u8g, 50, 61, "again");
     608:	82 e5       	ldi	r24, 0x52	; 82
     60a:	92 e0       	ldi	r25, 0x02	; 2
     60c:	09 d6       	rcall	.+3090   	; 0x1220 <u8g_DrawStr>
     60e:	df 91       	pop	r29
     610:	cf 91       	pop	r28
     612:	08 95       	ret

00000614 <falling_sound>:
}


/* Genereaza o sunetul folosind buzzer-ul. */
void falling_sound(void) 
{
     614:	a0 e0       	ldi	r26, 0x00	; 0
     616:	b0 e0       	ldi	r27, 0x00	; 0
     618:	e0 e1       	ldi	r30, 0x10	; 16
     61a:	f3 e0       	ldi	r31, 0x03	; 3
     61c:	0c 94 4c 12 	jmp	0x2498	; 0x2498 <__prologue_saves__+0x14>
     620:	c9 e3       	ldi	r28, 0x39	; 57
     622:	d1 e0       	ldi	r29, 0x01	; 1
	int nota, perioada_nota;
	int i, j;
	for (nota = 0;  nota < 8; nota++) {
		for (j = 0 ; j < 10; j++) {
			perioada_nota = 1000000 / frecv_nota[nota];
     624:	30 e4       	ldi	r19, 0x40	; 64
     626:	c3 2e       	mov	r12, r19
     628:	32 e4       	ldi	r19, 0x42	; 66
     62a:	d3 2e       	mov	r13, r19
     62c:	3f e0       	ldi	r19, 0x0F	; 15
     62e:	e3 2e       	mov	r14, r19
     630:	f1 2c       	mov	r15, r1
}


/* Genereaza o sunetul folosind buzzer-ul. */
void falling_sound(void) 
{
     632:	0a e0       	ldi	r16, 0x0A	; 10
     634:	10 e0       	ldi	r17, 0x00	; 0
	int nota, perioada_nota;
	int i, j;
	for (nota = 0;  nota < 8; nota++) {
		for (j = 0 ; j < 10; j++) {
			perioada_nota = 1000000 / frecv_nota[nota];
     636:	28 81       	ld	r18, Y
     638:	39 81       	ldd	r19, Y+1	; 0x01
     63a:	40 e0       	ldi	r20, 0x00	; 0
     63c:	50 e0       	ldi	r21, 0x00	; 0
     63e:	c7 01       	movw	r24, r14
     640:	b6 01       	movw	r22, r12
     642:	0e 94 20 12 	call	0x2440	; 0x2440 <__divmodsi4>
			
			PORTB |= (1 << PB1);
     646:	29 9a       	sbi	0x05, 1	; 5
			for (i = 0; i < perioada_nota / 2; ++i)
     648:	c9 01       	movw	r24, r18
     64a:	37 fd       	sbrc	r19, 7
     64c:	01 96       	adiw	r24, 0x01	; 1
     64e:	95 95       	asr	r25
     650:	87 95       	ror	r24
     652:	20 e0       	ldi	r18, 0x00	; 0
     654:	30 e0       	ldi	r19, 0x00	; 0
     656:	28 17       	cp	r18, r24
     658:	39 07       	cpc	r19, r25
     65a:	3c f4       	brge	.+14     	; 0x66a <falling_sound+0x56>
	#else
		//round up by default
		__ticks_dc = (uint32_t)(ceil(fabs(__tmp)));
	#endif

	__builtin_avr_delay_cycles(__ticks_dc);
     65c:	45 e0       	ldi	r20, 0x05	; 5
     65e:	4a 95       	dec	r20
     660:	f1 f7       	brne	.-4      	; 0x65e <falling_sound+0x4a>
     662:	00 00       	nop
     664:	2f 5f       	subi	r18, 0xFF	; 255
     666:	3f 4f       	sbci	r19, 0xFF	; 255
     668:	f6 cf       	rjmp	.-20     	; 0x656 <falling_sound+0x42>
				_delay_us(1);

			PORTB &= ~(1 << PB1);
     66a:	29 98       	cbi	0x05, 1	; 5
			for (i = 0; i < perioada_nota / 2; ++i)
     66c:	20 e0       	ldi	r18, 0x00	; 0
     66e:	30 e0       	ldi	r19, 0x00	; 0
     670:	28 17       	cp	r18, r24
     672:	39 07       	cpc	r19, r25
     674:	3c f4       	brge	.+14     	; 0x684 <falling_sound+0x70>
     676:	45 e0       	ldi	r20, 0x05	; 5
     678:	4a 95       	dec	r20
     67a:	f1 f7       	brne	.-4      	; 0x678 <falling_sound+0x64>
     67c:	00 00       	nop
     67e:	2f 5f       	subi	r18, 0xFF	; 255
     680:	3f 4f       	sbci	r19, 0xFF	; 255
     682:	f6 cf       	rjmp	.-20     	; 0x670 <falling_sound+0x5c>
     684:	01 50       	subi	r16, 0x01	; 1
     686:	11 09       	sbc	r17, r1
void falling_sound(void) 
{
	int nota, perioada_nota;
	int i, j;
	for (nota = 0;  nota < 8; nota++) {
		for (j = 0 ; j < 10; j++) {
     688:	b1 f6       	brne	.-84     	; 0x636 <falling_sound+0x22>
     68a:	22 96       	adiw	r28, 0x02	; 2
/* Genereaza o sunetul folosind buzzer-ul. */
void falling_sound(void) 
{
	int nota, perioada_nota;
	int i, j;
	for (nota = 0;  nota < 8; nota++) {
     68c:	81 e0       	ldi	r24, 0x01	; 1
     68e:	c9 34       	cpi	r28, 0x49	; 73
     690:	d8 07       	cpc	r29, r24
     692:	79 f6       	brne	.-98     	; 0x632 <falling_sound+0x1e>
			PORTB &= ~(1 << PB1);
			for (i = 0; i < perioada_nota / 2; ++i)
				_delay_us(1);
		}
	}
}
     694:	cd b7       	in	r28, 0x3d	; 61
     696:	de b7       	in	r29, 0x3e	; 62
     698:	e8 e0       	ldi	r30, 0x08	; 8
     69a:	0c 94 68 12 	jmp	0x24d0	; 0x24d0 <__epilogue_restores__+0x14>

0000069e <play>:

/* Modificarea pozitiei bilei, determinata de
 * miscarea accelerometrului
 */
void play(void) 
{
     69e:	a0 e0       	ldi	r26, 0x00	; 0
     6a0:	b0 e0       	ldi	r27, 0x00	; 0
     6a2:	e5 e5       	ldi	r30, 0x55	; 85
     6a4:	f3 e0       	ldi	r31, 0x03	; 3
     6a6:	0c 94 44 12 	jmp	0x2488	; 0x2488 <__prologue_saves__+0x4>
	int val_x, val_y, aux1, aux2;;
	unsigned char i;

	mpu6050_getConvData(&x, &y, &z, &unused, &unused, &unused);
     6aa:	2e e4       	ldi	r18, 0x4E	; 78
     6ac:	e2 2e       	mov	r14, r18
     6ae:	22 e0       	ldi	r18, 0x02	; 2
     6b0:	f2 2e       	mov	r15, r18
     6b2:	87 01       	movw	r16, r14
     6b4:	97 01       	movw	r18, r14
     6b6:	42 ec       	ldi	r20, 0xC2	; 194
     6b8:	51 e0       	ldi	r21, 0x01	; 1
     6ba:	66 ec       	ldi	r22, 0xC6	; 198
     6bc:	71 e0       	ldi	r23, 0x01	; 1
     6be:	8a ec       	ldi	r24, 0xCA	; 202
     6c0:	91 e0       	ldi	r25, 0x01	; 1
     6c2:	0e 94 7f 0f 	call	0x1efe	; 0x1efe <mpu6050_getConvData>
	val_x = y * PAD_INCREMENT;
     6c6:	80 90 c6 01 	lds	r8, 0x01C6
     6ca:	90 90 c7 01 	lds	r9, 0x01C7
     6ce:	a0 90 c8 01 	lds	r10, 0x01C8
     6d2:	b0 90 c9 01 	lds	r11, 0x01C9
	val_y = x * PAD_INCREMENT;
     6d6:	20 e0       	ldi	r18, 0x00	; 0
     6d8:	30 e0       	ldi	r19, 0x00	; 0
     6da:	40 e2       	ldi	r20, 0x20	; 32
     6dc:	51 e4       	ldi	r21, 0x41	; 65
     6de:	60 91 ca 01 	lds	r22, 0x01CA
     6e2:	70 91 cb 01 	lds	r23, 0x01CB
     6e6:	80 91 cc 01 	lds	r24, 0x01CC
     6ea:	90 91 cd 01 	lds	r25, 0x01CD
     6ee:	0e 94 c2 13 	call	0x2784	; 0x2784 <__mulsf3>
     6f2:	0e 94 03 13 	call	0x2606	; 0x2606 <__fixsfsi>
     6f6:	eb 01       	movw	r28, r22

	if (!win) {
     6f8:	80 91 04 01 	lds	r24, 0x0104
     6fc:	81 11       	cpse	r24, r1
     6fe:	0f c0       	rjmp	.+30     	; 0x71e <play+0x80>
		/* atunci dupa ce cade intr-o gaura, 
		 * bila va reincepe de pe pozitia initiala 
		 */
		pos_x = INIT_X;
     700:	84 e0       	ldi	r24, 0x04	; 4
     702:	90 e0       	ldi	r25, 0x00	; 0
     704:	90 93 03 01 	sts	0x0103, r25
     708:	80 93 02 01 	sts	0x0102, r24
		pos_y = INIT_Y;
     70c:	90 93 01 01 	sts	0x0101, r25
     710:	80 93 00 01 	sts	0x0100, r24
		win = 1;
     714:	81 e0       	ldi	r24, 0x01	; 1
     716:	80 93 04 01 	sts	0x0104, r24
		falling_sound();
     71a:	7c df       	rcall	.-264    	; 0x614 <falling_sound>
     71c:	db c0       	rjmp	.+438    	; 0x8d4 <play+0x236>
     71e:	e0 90 02 01 	lds	r14, 0x0102
					val_x =  pos_y - x1[i] - RAD - 1;
				else if (val_x < 0  && x1[i] -  pos_x <= RAD - val_x)
					val_x = RAD + 1 - (x1[i] - pos_x);
			}*/
			/* Inersectia cu segementele orizontale */
			if (pos_x >= x_st[i] && pos_x <= x_end[i]) {
     722:	f0 90 03 01 	lds	r15, 0x0103
     726:	00 91 00 01 	lds	r16, 0x0100
				if (val_y > 0  && pos_y - y_st[i] <= RAD + val_y)
     72a:	10 91 01 01 	lds	r17, 0x0101
     72e:	38 01       	movw	r6, r16
     730:	23 e0       	ldi	r18, 0x03	; 3
     732:	62 0e       	add	r6, r18
     734:	71 1c       	adc	r7, r1
     736:	49 e5       	ldi	r20, 0x59	; 89
     738:	51 e0       	ldi	r21, 0x01	; 1
     73a:	81 e5       	ldi	r24, 0x51	; 81
     73c:	48 2e       	mov	r4, r24
     73e:	81 e0       	ldi	r24, 0x01	; 1
     740:	58 2e       	mov	r5, r24
     742:	e9 e4       	ldi	r30, 0x49	; 73
     744:	f1 e0       	ldi	r31, 0x01	; 1
     746:	92 e0       	ldi	r25, 0x02	; 2
					val_y =  pos_y - y_st[i] - RAD - 1;
				else if (val_y < 0  && y_st[i] -  pos_y <= RAD - val_y)
     748:	c9 2e       	mov	r12, r25
     74a:	d1 2c       	mov	r13, r1
     74c:	da 01       	movw	r26, r20
					val_x =  pos_y - x1[i] - RAD - 1;
				else if (val_x < 0  && x1[i] -  pos_x <= RAD - val_x)
					val_x = RAD + 1 - (x1[i] - pos_x);
			}*/
			/* Inersectia cu segementele orizontale */
			if (pos_x >= x_st[i] && pos_x <= x_end[i]) {
     74e:	8d 91       	ld	r24, X+
     750:	9d 91       	ld	r25, X+
     752:	ad 01       	movw	r20, r26
     754:	e8 16       	cp	r14, r24
     756:	f9 06       	cpc	r15, r25
     758:	40 f1       	brcs	.+80     	; 0x7aa <play+0x10c>
     75a:	d2 01       	movw	r26, r4
     75c:	8d 91       	ld	r24, X+
     75e:	9c 91       	ld	r25, X
     760:	8e 15       	cp	r24, r14
     762:	9f 05       	cpc	r25, r15
     764:	10 f1       	brcs	.+68     	; 0x7aa <play+0x10c>
     766:	1c 16       	cp	r1, r28
				if (val_y > 0  && pos_y - y_st[i] <= RAD + val_y)
     768:	1d 06       	cpc	r1, r29
     76a:	7c f4       	brge	.+30     	; 0x78a <play+0xec>
     76c:	80 81       	ld	r24, Z
     76e:	91 81       	ldd	r25, Z+1	; 0x01
     770:	98 01       	movw	r18, r16
     772:	28 1b       	sub	r18, r24
     774:	39 0b       	sbc	r19, r25
     776:	c9 01       	movw	r24, r18
     778:	9e 01       	movw	r18, r28
     77a:	2e 5f       	subi	r18, 0xFE	; 254
     77c:	3f 4f       	sbci	r19, 0xFF	; 255
     77e:	28 17       	cp	r18, r24
     780:	39 07       	cpc	r19, r25
     782:	98 f0       	brcs	.+38     	; 0x7aa <play+0x10c>
     784:	ec 01       	movw	r28, r24
					val_y =  pos_y - y_st[i] - RAD - 1;
     786:	23 97       	sbiw	r28, 0x03	; 3
     788:	10 c0       	rjmp	.+32     	; 0x7aa <play+0x10c>
     78a:	20 97       	sbiw	r28, 0x00	; 0
				else if (val_y < 0  && y_st[i] -  pos_y <= RAD - val_y)
     78c:	71 f0       	breq	.+28     	; 0x7aa <play+0x10c>
     78e:	60 81       	ld	r22, Z
     790:	71 81       	ldd	r23, Z+1	; 0x01
     792:	9b 01       	movw	r18, r22
     794:	20 1b       	sub	r18, r16
     796:	31 0b       	sbc	r19, r17
     798:	c6 01       	movw	r24, r12
     79a:	8c 1b       	sub	r24, r28
     79c:	9d 0b       	sbc	r25, r29
     79e:	82 17       	cp	r24, r18
     7a0:	93 07       	cpc	r25, r19
     7a2:	18 f0       	brcs	.+6      	; 0x7aa <play+0x10c>
     7a4:	e3 01       	movw	r28, r6
					val_y = RAD + 1 - (y_st[i] - pos_y);
     7a6:	c6 1b       	sub	r28, r22
     7a8:	d7 0b       	sbc	r29, r23
     7aa:	32 e0       	ldi	r19, 0x02	; 2
     7ac:	43 0e       	add	r4, r19
     7ae:	51 1c       	adc	r5, r1
     7b0:	32 96       	adiw	r30, 0x02	; 2
     7b2:	81 e0       	ldi	r24, 0x01	; 1
		pos_y = INIT_Y;
		win = 1;
		falling_sound();
		
	} else {
		for (i = 0; i < NO_LINES; i++) {
     7b4:	41 36       	cpi	r20, 0x61	; 97
     7b6:	58 07       	cpc	r21, r24
     7b8:	49 f6       	brne	.-110    	; 0x74c <play+0xae>
     7ba:	ef e1       	ldi	r30, 0x1F	; 31
     7bc:	f1 e0       	ldi	r31, 0x01	; 1
     7be:	a5 e0       	ldi	r26, 0x05	; 5
     7c0:	b1 e0       	ldi	r27, 0x01	; 1
     7c2:	21 91       	ld	r18, Z+
			}
		}

		/* Intersectia cu gaurile */
		for (i = 0 ; i < NO_HOLES - 1; i++){
			aux1 = pos_x - hole_x[i];
     7c4:	31 91       	ld	r19, Z+
     7c6:	c7 01       	movw	r24, r14
     7c8:	82 1b       	sub	r24, r18
     7ca:	93 0b       	sbc	r25, r19
     7cc:	6d 91       	ld	r22, X+
			aux2 = pos_y - hole_y[i];
     7ce:	7d 91       	ld	r23, X+
     7d0:	a8 01       	movw	r20, r16
     7d2:	46 1b       	sub	r20, r22
     7d4:	57 0b       	sbc	r21, r23
     7d6:	88 9f       	mul	r24, r24
			if (aux1 * aux1 + aux2 * aux2 <= DIST) {
     7d8:	60 01       	movw	r12, r0
     7da:	89 9f       	mul	r24, r25
     7dc:	d0 0c       	add	r13, r0
     7de:	d0 0c       	add	r13, r0
     7e0:	11 24       	eor	r1, r1
     7e2:	44 9f       	mul	r20, r20
     7e4:	c0 01       	movw	r24, r0
     7e6:	45 9f       	mul	r20, r21
     7e8:	90 0d       	add	r25, r0
     7ea:	90 0d       	add	r25, r0
     7ec:	11 24       	eor	r1, r1
     7ee:	8c 0d       	add	r24, r12
     7f0:	9d 1d       	adc	r25, r13
     7f2:	41 97       	sbiw	r24, 0x11	; 17
     7f4:	5c f4       	brge	.+22     	; 0x80c <play+0x16e>
     7f6:	30 93 03 01 	sts	0x0103, r19
				pos_x = hole_x[i];
     7fa:	20 93 02 01 	sts	0x0102, r18
     7fe:	70 93 01 01 	sts	0x0101, r23
				pos_y = hole_y[i];
     802:	60 93 00 01 	sts	0x0100, r22
     806:	10 92 04 01 	sts	0x0104, r1
				win = 0;
     80a:	64 c0       	rjmp	.+200    	; 0x8d4 <play+0x236>
				return;
     80c:	21 e0       	ldi	r18, 0x01	; 1
					val_y = RAD + 1 - (y_st[i] - pos_y);
			}
		}

		/* Intersectia cu gaurile */
		for (i = 0 ; i < NO_HOLES - 1; i++){
     80e:	e7 33       	cpi	r30, 0x37	; 55
     810:	f2 07       	cpc	r31, r18
     812:	b9 f6       	brne	.-82     	; 0x7c2 <play+0x124>
     814:	80 91 37 01 	lds	r24, 0x0137
				return;
			}
		}

		/* destinatia finala */
		aux1 = pos_x - hole_x[i];
     818:	90 91 38 01 	lds	r25, 0x0138
     81c:	a7 01       	movw	r20, r14
     81e:	48 1b       	sub	r20, r24
     820:	59 0b       	sbc	r21, r25
     822:	80 91 1d 01 	lds	r24, 0x011D
		aux2 = pos_y - hole_y[i];
     826:	90 91 1e 01 	lds	r25, 0x011E
     82a:	98 01       	movw	r18, r16
     82c:	28 1b       	sub	r18, r24
     82e:	39 0b       	sbc	r19, r25
     830:	44 9f       	mul	r20, r20
		if (aux1 * aux1 + aux2 * aux2 <= DIST) {
     832:	b0 01       	movw	r22, r0
     834:	45 9f       	mul	r20, r21
     836:	70 0d       	add	r23, r0
     838:	70 0d       	add	r23, r0
     83a:	11 24       	eor	r1, r1
     83c:	22 9f       	mul	r18, r18
     83e:	c0 01       	movw	r24, r0
     840:	23 9f       	mul	r18, r19
     842:	90 0d       	add	r25, r0
     844:	90 0d       	add	r25, r0
     846:	11 24       	eor	r1, r1
     848:	86 0f       	add	r24, r22
     84a:	97 1f       	adc	r25, r23
     84c:	41 97       	sbiw	r24, 0x11	; 17
     84e:	24 f4       	brge	.+8      	; 0x858 <play+0x1ba>
     850:	82 e0       	ldi	r24, 0x02	; 2
				win = 2;
     852:	80 93 04 01 	sts	0x0104, r24
     856:	3e c0       	rjmp	.+124    	; 0x8d4 <play+0x236>
				return;
     858:	20 e0       	ldi	r18, 0x00	; 0
{
	int val_x, val_y, aux1, aux2;;
	unsigned char i;

	mpu6050_getConvData(&x, &y, &z, &unused, &unused, &unused);
	val_x = y * PAD_INCREMENT;
     85a:	30 e0       	ldi	r19, 0x00	; 0
     85c:	40 e2       	ldi	r20, 0x20	; 32
     85e:	51 e4       	ldi	r21, 0x41	; 65
     860:	c5 01       	movw	r24, r10
     862:	b4 01       	movw	r22, r8
     864:	0e 94 c2 13 	call	0x2784	; 0x2784 <__mulsf3>
     868:	0e 94 03 13 	call	0x2606	; 0x2606 <__fixsfsi>
     86c:	fb 01       	movw	r30, r22
     86e:	a7 01       	movw	r20, r14
				win = 2;
				return;
		}

		/* intersectia cu "rama"*/
		aux1 = pos_x - val_x;
     870:	46 1b       	sub	r20, r22
     872:	57 0b       	sbc	r21, r23
     874:	98 01       	movw	r18, r16
		aux2 = pos_y - val_y;
     876:	2c 1b       	sub	r18, r28
     878:	3d 0b       	sbc	r19, r29
     87a:	1e 16       	cp	r1, r30
	    if (val_x > 0 && aux1 < DIAM)
     87c:	1f 06       	cpc	r1, r31
     87e:	34 f4       	brge	.+12     	; 0x88c <play+0x1ee>
     880:	45 30       	cpi	r20, 0x05	; 5
     882:	51 05       	cpc	r21, r1
     884:	5c f4       	brge	.+22     	; 0x89c <play+0x1fe>
     886:	f7 01       	movw	r30, r14
			val_x =  pos_x - RAD - 1;
     888:	33 97       	sbiw	r30, 0x03	; 3
     88a:	08 c0       	rjmp	.+16     	; 0x89c <play+0x1fe>
     88c:	30 97       	sbiw	r30, 0x00	; 0
		else if (val_x < 0  && aux1 > MAX_X - DIAM)
     88e:	31 f0       	breq	.+12     	; 0x89c <play+0x1fe>
     890:	4b 37       	cpi	r20, 0x7B	; 123
     892:	51 05       	cpc	r21, r1
     894:	1c f0       	brlt	.+6      	; 0x89c <play+0x1fe>
     896:	f7 01       	movw	r30, r14
			val_x = pos_x  - (MAX_X - RAD - 1);
     898:	ec 57       	subi	r30, 0x7C	; 124
     89a:	f1 09       	sbc	r31, r1
     89c:	1c 16       	cp	r1, r28
		
		if (val_y > 0  && aux2 < DIAM)
     89e:	1d 06       	cpc	r1, r29
     8a0:	34 f4       	brge	.+12     	; 0x8ae <play+0x210>
     8a2:	25 30       	cpi	r18, 0x05	; 5
     8a4:	31 05       	cpc	r19, r1
     8a6:	54 f4       	brge	.+20     	; 0x8bc <play+0x21e>
     8a8:	e8 01       	movw	r28, r16
			val_y =  pos_y - RAD - 1;
     8aa:	23 97       	sbiw	r28, 0x03	; 3
     8ac:	07 c0       	rjmp	.+14     	; 0x8bc <play+0x21e>
     8ae:	20 97       	sbiw	r28, 0x00	; 0
		else if (val_y < 0  && aux2 >= MAX_Y - DIAM)
     8b0:	29 f0       	breq	.+10     	; 0x8bc <play+0x21e>
     8b2:	2a 33       	cpi	r18, 0x3A	; 58
     8b4:	31 05       	cpc	r19, r1
     8b6:	14 f0       	brlt	.+4      	; 0x8bc <play+0x21e>
     8b8:	e8 01       	movw	r28, r16
			val_y = pos_y  - (MAX_Y - RAD - 1);
     8ba:	ec 97       	sbiw	r28, 0x3c	; 60
     8bc:	ee 1a       	sub	r14, r30

		pos_x -= val_x;
     8be:	ff 0a       	sbc	r15, r31
     8c0:	f0 92 03 01 	sts	0x0103, r15
     8c4:	e0 92 02 01 	sts	0x0102, r14
     8c8:	0c 1b       	sub	r16, r28
	    pos_y -= val_y;
     8ca:	1d 0b       	sbc	r17, r29
     8cc:	10 93 01 01 	sts	0x0101, r17
     8d0:	00 93 00 01 	sts	0x0100, r16
     8d4:	cd b7       	in	r28, 0x3d	; 61
	}
}
     8d6:	de b7       	in	r29, 0x3e	; 62
     8d8:	e0 e1       	ldi	r30, 0x10	; 16
     8da:	0c 94 60 12 	jmp	0x24c0	; 0x24c0 <__epilogue_restores__+0x4>

000008de <draw_X>:

/* Marcheaza destinatia finala */
void draw_X(void)
{
     8de:	ef 92       	push	r14
     8e0:	ff 92       	push	r15
     8e2:	0f 93       	push	r16
     8e4:	cf 93       	push	r28
     8e6:	df 93       	push	r29
	unsigned char last = NO_HOLES - 1;

	u8g_DrawLine(&u8g, hole_x[last] - 1, hole_y[last] - 1, 
					   hole_x[last] + 1, hole_y[last] + 1);
     8e8:	85 e0       	ldi	r24, 0x05	; 5
     8ea:	e8 2e       	mov	r14, r24
     8ec:	81 e0       	ldi	r24, 0x01	; 1
     8ee:	f8 2e       	mov	r15, r24
/* Marcheaza destinatia finala */
void draw_X(void)
{
	unsigned char last = NO_HOLES - 1;

	u8g_DrawLine(&u8g, hole_x[last] - 1, hole_y[last] - 1, 
     8f0:	f7 01       	movw	r30, r14
     8f2:	40 8d       	ldd	r20, Z+24	; 0x18
					   hole_x[last] + 1, hole_y[last] + 1);
     8f4:	cf e1       	ldi	r28, 0x1F	; 31
     8f6:	d1 e0       	ldi	r29, 0x01	; 1
/* Marcheaza destinatia finala */
void draw_X(void)
{
	unsigned char last = NO_HOLES - 1;

	u8g_DrawLine(&u8g, hole_x[last] - 1, hole_y[last] - 1, 
     8f8:	68 8d       	ldd	r22, Y+24	; 0x18
     8fa:	01 e0       	ldi	r16, 0x01	; 1
     8fc:	04 0f       	add	r16, r20
     8fe:	21 e0       	ldi	r18, 0x01	; 1
     900:	26 0f       	add	r18, r22
     902:	41 50       	subi	r20, 0x01	; 1
     904:	61 50       	subi	r22, 0x01	; 1
     906:	82 e5       	ldi	r24, 0x52	; 82
     908:	92 e0       	ldi	r25, 0x02	; 2
     90a:	22 d5       	rcall	.+2628   	; 0x1350 <u8g_DrawLine>
     90c:	f7 01       	movw	r30, r14
					   hole_x[last] + 1, hole_y[last] + 1);
	u8g_DrawLine(&u8g, hole_x[last] - 1, hole_y[last] + 1, 
     90e:	40 8d       	ldd	r20, Z+24	; 0x18
     910:	68 8d       	ldd	r22, Y+24	; 0x18
     912:	0f ef       	ldi	r16, 0xFF	; 255
     914:	04 0f       	add	r16, r20
     916:	21 e0       	ldi	r18, 0x01	; 1
     918:	26 0f       	add	r18, r22
     91a:	4f 5f       	subi	r20, 0xFF	; 255
     91c:	61 50       	subi	r22, 0x01	; 1
     91e:	82 e5       	ldi	r24, 0x52	; 82
     920:	92 e0       	ldi	r25, 0x02	; 2
     922:	16 d5       	rcall	.+2604   	; 0x1350 <u8g_DrawLine>
     924:	df 91       	pop	r29
     926:	cf 91       	pop	r28
					   hole_x[last] + 1, hole_y[last] - 1);
}
     928:	0f 91       	pop	r16
     92a:	ff 90       	pop	r15
     92c:	ef 90       	pop	r14
     92e:	08 95       	ret

00000930 <draw_level>:

void draw_level(void)
{
     930:	cf 92       	push	r12
     932:	df 92       	push	r13
     934:	ef 92       	push	r14
     936:	ff 92       	push	r15
     938:	0f 93       	push	r16
     93a:	cf 93       	push	r28
     93c:	df 93       	push	r29
	unsigned char i;
	
	u8g_SetRot180(&u8g);
     93e:	82 e5       	ldi	r24, 0x52	; 82
     940:	92 e0       	ldi	r25, 0x02	; 2
     942:	0e 94 39 0d 	call	0x1a72	; 0x1a72 <u8g_SetRot180>
	draw_frame();
     946:	c7 dd       	rcall	.-1138   	; 0x4d6 <draw_frame>
     948:	c1 e5       	ldi	r28, 0x51	; 81
     94a:	d1 e0       	ldi	r29, 0x01	; 1
     94c:	99 e4       	ldi	r25, 0x49	; 73
     94e:	c9 2e       	mov	r12, r25
     950:	91 e0       	ldi	r25, 0x01	; 1
     952:	d9 2e       	mov	r13, r25
     954:	29 e5       	ldi	r18, 0x59	; 89
     956:	e2 2e       	mov	r14, r18
     958:	21 e0       	ldi	r18, 0x01	; 1
     95a:	f2 2e       	mov	r15, r18
     95c:	28 81       	ld	r18, Y
	
	for (i = 0; i < NO_LINES; ++i)
		u8g_DrawLine(&u8g, x_st[i], y_st[i], x_end[i], y_st[i]);	
     95e:	22 96       	adiw	r28, 0x02	; 2
     960:	f6 01       	movw	r30, r12
     962:	40 81       	ld	r20, Z
     964:	f2 e0       	ldi	r31, 0x02	; 2
     966:	cf 0e       	add	r12, r31
     968:	d1 1c       	adc	r13, r1
     96a:	f7 01       	movw	r30, r14
     96c:	60 81       	ld	r22, Z
     96e:	f2 e0       	ldi	r31, 0x02	; 2
     970:	ef 0e       	add	r14, r31
     972:	f1 1c       	adc	r15, r1
     974:	04 2f       	mov	r16, r20
     976:	82 e5       	ldi	r24, 0x52	; 82
     978:	92 e0       	ldi	r25, 0x02	; 2
     97a:	ea d4       	rcall	.+2516   	; 0x1350 <u8g_DrawLine>
     97c:	81 e0       	ldi	r24, 0x01	; 1
     97e:	c9 35       	cpi	r28, 0x59	; 89
	unsigned char i;
	
	u8g_SetRot180(&u8g);
	draw_frame();
	
	for (i = 0; i < NO_LINES; ++i)
     980:	d8 07       	cpc	r29, r24
     982:	61 f7       	brne	.-40     	; 0x95c <draw_level+0x2c>
     984:	c5 e0       	ldi	r28, 0x05	; 5
     986:	d1 e0       	ldi	r29, 0x01	; 1
     988:	8f e1       	ldi	r24, 0x1F	; 31
     98a:	e8 2e       	mov	r14, r24
     98c:	81 e0       	ldi	r24, 0x01	; 1
     98e:	f8 2e       	mov	r15, r24
     990:	48 81       	ld	r20, Y
     992:	22 96       	adiw	r28, 0x02	; 2
		u8g_DrawLine(&u8g, x_st[i], y_st[i], x_end[i], y_st[i]);	
	
	for ( i = 0; i < NO_HOLES ; i++)
		u8g_DrawCircle(&u8g, hole_x[i], hole_y[i], RAD_HOLE, U8G_DRAW_ALL);
     994:	f7 01       	movw	r30, r14
     996:	60 81       	ld	r22, Z
     998:	f2 e0       	ldi	r31, 0x02	; 2
     99a:	ef 0e       	add	r14, r31
     99c:	f1 1c       	adc	r15, r1
     99e:	0f e0       	ldi	r16, 0x0F	; 15
     9a0:	23 e0       	ldi	r18, 0x03	; 3
     9a2:	82 e5       	ldi	r24, 0x52	; 82
     9a4:	92 e0       	ldi	r25, 0x02	; 2
     9a6:	63 d1       	rcall	.+710    	; 0xc6e <u8g_DrawCircle>
     9a8:	81 e0       	ldi	r24, 0x01	; 1
     9aa:	cf 31       	cpi	r28, 0x1F	; 31
     9ac:	d8 07       	cpc	r29, r24
	draw_frame();
	
	for (i = 0; i < NO_LINES; ++i)
		u8g_DrawLine(&u8g, x_st[i], y_st[i], x_end[i], y_st[i]);	
	
	for ( i = 0; i < NO_HOLES ; i++)
     9ae:	81 f7       	brne	.-32     	; 0x990 <draw_level+0x60>
     9b0:	96 df       	rcall	.-212    	; 0x8de <draw_X>
     9b2:	22 e0       	ldi	r18, 0x02	; 2
     9b4:	40 91 00 01 	lds	r20, 0x0100
		u8g_DrawCircle(&u8g, hole_x[i], hole_y[i], RAD_HOLE, U8G_DRAW_ALL);

	draw_X();
     9b8:	60 91 02 01 	lds	r22, 0x0102
	u8g_DrawDisc(&u8g, pos_x, pos_y, RAD, U8G_DRAW_ALL);
     9bc:	82 e5       	ldi	r24, 0x52	; 82
     9be:	92 e0       	ldi	r25, 0x02	; 2
     9c0:	a8 d1       	rcall	.+848    	; 0xd12 <u8g_DrawDisc>
     9c2:	df 91       	pop	r29
     9c4:	cf 91       	pop	r28
     9c6:	0f 91       	pop	r16
     9c8:	ff 90       	pop	r15
     9ca:	ef 90       	pop	r14
}
     9cc:	df 90       	pop	r13
     9ce:	cf 90       	pop	r12
     9d0:	08 95       	ret

000009d2 <main>:


int main(void)
{
	sys_init();
     9d2:	7b dd       	rcall	.-1290   	; 0x4ca <sys_init>
     9d4:	0e 94 16 0f 	call	0x1e2c	; 0x1e2c <mpu6050_init>
	mpu6050_init();
     9d8:	51 dd       	rcall	.-1374   	; 0x47c <u8g_setup>
	u8g_setup();
     9da:	20 98       	cbi	0x04, 0	; 4
     9dc:	28 9a       	sbi	0x05, 0	; 5
	int i = 1; 
	/* Setez pinul PB0 ca intrare : buton */
	DDRB &= ~(1 << PB0);
     9de:	21 9a       	sbi	0x04, 1	; 4
	PORTB |= (1 << PB0);
     9e0:	82 e5       	ldi	r24, 0x52	; 82
	/* Setez pinul PB01 ca iesire: buzzer */
	DDRB |= (1 << PB1);
     9e2:	92 e0       	ldi	r25, 0x02	; 2

	/* Pagina de inceput */
	for(;;) {  
		u8g_FirstPage(&u8g);
     9e4:	45 d6       	rcall	.+3210   	; 0x1670 <u8g_FirstPage>
     9e6:	95 dd       	rcall	.-1238   	; 0x512 <draw_start>
     9e8:	82 e5       	ldi	r24, 0x52	; 82
     9ea:	92 e0       	ldi	r25, 0x02	; 2
		do
		{ 
		 draw_start();
     9ec:	45 d6       	rcall	.+3210   	; 0x1678 <u8g_NextPage>
     9ee:	81 11       	cpse	r24, r1
		} while ( u8g_NextPage(&u8g) );
     9f0:	fa cf       	rjmp	.-12     	; 0x9e6 <main+0x14>
     9f2:	8a e0       	ldi	r24, 0x0A	; 10
     9f4:	90 e0       	ldi	r25, 0x00	; 0
     9f6:	3d d2       	rcall	.+1146   	; 0xe72 <u8g_Delay>
     9f8:	18 99       	sbic	0x03, 0	; 3
     9fa:	f2 cf       	rjmp	.-28     	; 0x9e0 <main+0xe>
		u8g_Delay(10);
     9fc:	82 e5       	ldi	r24, 0x52	; 82
     9fe:	92 e0       	ldi	r25, 0x02	; 2
     a00:	37 d6       	rcall	.+3182   	; 0x1670 <u8g_FirstPage>
     a02:	96 df       	rcall	.-212    	; 0x930 <draw_level>

		/* La apasarea butonului, incepe jocul*/
		if ((PINB & (1 << PB0)) == 0)
     a04:	82 e5       	ldi	r24, 0x52	; 82
     a06:	92 e0       	ldi	r25, 0x02	; 2
	for(;;) { 
		i = 1;

		/* Jocul */ 
		for(;;) {  
			u8g_FirstPage(&u8g);
     a08:	37 d6       	rcall	.+3182   	; 0x1678 <u8g_NextPage>
     a0a:	81 11       	cpse	r24, r1
     a0c:	fa cf       	rjmp	.-12     	; 0xa02 <main+0x30>
     a0e:	47 de       	rcall	.-882    	; 0x69e <play>
			do
			{
				draw_level();
     a10:	80 91 04 01 	lds	r24, 0x0104
			} while ( u8g_NextPage(&u8g) );
     a14:	82 30       	cpi	r24, 0x02	; 2
     a16:	91 f7       	brne	.-28     	; 0x9fc <main+0x2a>
     a18:	c1 e0       	ldi	r28, 0x01	; 1
     a1a:	d0 e0       	ldi	r29, 0x00	; 0
     a1c:	82 e5       	ldi	r24, 0x52	; 82
     a1e:	92 e0       	ldi	r25, 0x02	; 2
			play();	
     a20:	27 d6       	rcall	.+3150   	; 0x1670 <u8g_FirstPage>
     a22:	ce 01       	movw	r24, r28
			if (win == 2)  // la castig
     a24:	c8 dd       	rcall	.-1136   	; 0x5b6 <draw_end>
     a26:	82 e5       	ldi	r24, 0x52	; 82
     a28:	92 e0       	ldi	r25, 0x02	; 2
     a2a:	26 d6       	rcall	.+3148   	; 0x1678 <u8g_NextPage>
     a2c:	81 11       	cpse	r24, r1
     a2e:	f9 cf       	rjmp	.-14     	; 0xa22 <main+0x50>
				break;
		}

		/* Pagina de final */
		for(;;) {  
			u8g_FirstPage(&u8g);
     a30:	8a e0       	ldi	r24, 0x0A	; 10
     a32:	90 e0       	ldi	r25, 0x00	; 0
     a34:	1e d2       	rcall	.+1084   	; 0xe72 <u8g_Delay>
     a36:	81 e0       	ldi	r24, 0x01	; 1
			do
			{ 
			 draw_end(i);
     a38:	c8 27       	eor	r28, r24
     a3a:	10 92 04 01 	sts	0x0104, r1
			} while ( u8g_NextPage(&u8g) );
     a3e:	18 99       	sbic	0x03, 0	; 3
     a40:	ed cf       	rjmp	.-38     	; 0xa1c <main+0x4a>
     a42:	dc cf       	rjmp	.-72     	; 0x9fc <main+0x2a>

00000a44 <u8g_DrawHBitmapP>:
     a44:	a0 e0       	ldi	r26, 0x00	; 0
     a46:	b0 e0       	ldi	r27, 0x00	; 0
     a48:	e8 e2       	ldi	r30, 0x28	; 40
     a4a:	f5 e0       	ldi	r31, 0x05	; 5
     a4c:	0c 94 4b 12 	jmp	0x2496	; 0x2496 <__prologue_saves__+0x12>
     a50:	6c 01       	movw	r12, r24
     a52:	d6 2f       	mov	r29, r22
     a54:	b4 2e       	mov	r11, r20
     a56:	c2 2f       	mov	r28, r18
     a58:	78 01       	movw	r14, r16
     a5a:	cc 23       	and	r28, r28
     a5c:	69 f0       	breq	.+26     	; 0xa78 <u8g_DrawHBitmapP+0x34>
     a5e:	f7 01       	movw	r30, r14
     a60:	04 91       	lpm	r16, Z
     a62:	20 e0       	ldi	r18, 0x00	; 0
     a64:	4b 2d       	mov	r20, r11
     a66:	6d 2f       	mov	r22, r29
     a68:	c6 01       	movw	r24, r12
     a6a:	1c d6       	rcall	.+3128   	; 0x16a4 <u8g_Draw8Pixel>
     a6c:	ff ef       	ldi	r31, 0xFF	; 255
     a6e:	ef 1a       	sub	r14, r31
     a70:	ff 0a       	sbc	r15, r31
     a72:	c1 50       	subi	r28, 0x01	; 1
     a74:	d8 5f       	subi	r29, 0xF8	; 248
     a76:	f1 cf       	rjmp	.-30     	; 0xa5a <u8g_DrawHBitmapP+0x16>
     a78:	cd b7       	in	r28, 0x3d	; 61
     a7a:	de b7       	in	r29, 0x3e	; 62
     a7c:	e9 e0       	ldi	r30, 0x09	; 9
     a7e:	0c 94 67 12 	jmp	0x24ce	; 0x24ce <__epilogue_restores__+0x12>

00000a82 <u8g_DrawBitmapP>:
     a82:	a0 e0       	ldi	r26, 0x00	; 0
     a84:	b0 e0       	ldi	r27, 0x00	; 0
     a86:	e7 e4       	ldi	r30, 0x47	; 71
     a88:	f5 e0       	ldi	r31, 0x05	; 5
     a8a:	0c 94 48 12 	jmp	0x2490	; 0x2490 <__prologue_saves__+0xc>
     a8e:	5c 01       	movw	r10, r24
     a90:	c6 2e       	mov	r12, r22
     a92:	c4 2f       	mov	r28, r20
     a94:	d2 2e       	mov	r13, r18
     a96:	d0 2f       	mov	r29, r16
     a98:	22 0f       	add	r18, r18
     a9a:	22 0f       	add	r18, r18
     a9c:	22 0f       	add	r18, r18
     a9e:	5a d1       	rcall	.+692    	; 0xd54 <u8g_IsBBXIntersection>
     aa0:	88 23       	and	r24, r24
     aa2:	79 f0       	breq	.+30     	; 0xac2 <u8g_DrawBitmapP+0x40>
     aa4:	dc 0f       	add	r29, r28
     aa6:	8d 2c       	mov	r8, r13
     aa8:	91 2c       	mov	r9, r1
     aaa:	cd 17       	cp	r28, r29
     aac:	51 f0       	breq	.+20     	; 0xac2 <u8g_DrawBitmapP+0x40>
     aae:	87 01       	movw	r16, r14
     ab0:	2d 2d       	mov	r18, r13
     ab2:	4c 2f       	mov	r20, r28
     ab4:	6c 2d       	mov	r22, r12
     ab6:	c5 01       	movw	r24, r10
     ab8:	c5 df       	rcall	.-118    	; 0xa44 <u8g_DrawHBitmapP>
     aba:	e8 0c       	add	r14, r8
     abc:	f9 1c       	adc	r15, r9
     abe:	cf 5f       	subi	r28, 0xFF	; 255
     ac0:	f4 cf       	rjmp	.-24     	; 0xaaa <u8g_DrawBitmapP+0x28>
     ac2:	cd b7       	in	r28, 0x3d	; 61
     ac4:	de b7       	in	r29, 0x3e	; 62
     ac6:	ec e0       	ldi	r30, 0x0C	; 12
     ac8:	0c 94 64 12 	jmp	0x24c8	; 0x24c8 <__epilogue_restores__+0xc>

00000acc <u8g_draw_circle_section>:
     acc:	cf 92       	push	r12
     ace:	df 92       	push	r13
     ad0:	ef 92       	push	r14
     ad2:	0f 93       	push	r16
     ad4:	1f 93       	push	r17
     ad6:	cf 93       	push	r28
     ad8:	df 93       	push	r29
     ada:	6c 01       	movw	r12, r24
     adc:	d6 2f       	mov	r29, r22
     ade:	14 2f       	mov	r17, r20
     ae0:	c2 2f       	mov	r28, r18
     ae2:	e0 fe       	sbrs	r14, 0
     ae4:	0b c0       	rjmp	.+22     	; 0xafc <u8g_draw_circle_section+0x30>
     ae6:	40 2f       	mov	r20, r16
     ae8:	41 1b       	sub	r20, r17
     aea:	62 2f       	mov	r22, r18
     aec:	6d 0f       	add	r22, r29
     aee:	d3 d5       	rcall	.+2982   	; 0x1696 <u8g_DrawPixel>
     af0:	40 2f       	mov	r20, r16
     af2:	4d 1b       	sub	r20, r29
     af4:	61 2f       	mov	r22, r17
     af6:	6c 0f       	add	r22, r28
     af8:	c6 01       	movw	r24, r12
     afa:	cd d5       	rcall	.+2970   	; 0x1696 <u8g_DrawPixel>
     afc:	e1 fe       	sbrs	r14, 1
     afe:	0c c0       	rjmp	.+24     	; 0xb18 <u8g_draw_circle_section+0x4c>
     b00:	40 2f       	mov	r20, r16
     b02:	41 1b       	sub	r20, r17
     b04:	6c 2f       	mov	r22, r28
     b06:	6d 1b       	sub	r22, r29
     b08:	c6 01       	movw	r24, r12
     b0a:	c5 d5       	rcall	.+2954   	; 0x1696 <u8g_DrawPixel>
     b0c:	40 2f       	mov	r20, r16
     b0e:	4d 1b       	sub	r20, r29
     b10:	6c 2f       	mov	r22, r28
     b12:	61 1b       	sub	r22, r17
     b14:	c6 01       	movw	r24, r12
     b16:	bf d5       	rcall	.+2942   	; 0x1696 <u8g_DrawPixel>
     b18:	e3 fe       	sbrs	r14, 3
     b1a:	0c c0       	rjmp	.+24     	; 0xb34 <u8g_draw_circle_section+0x68>
     b1c:	40 2f       	mov	r20, r16
     b1e:	41 0f       	add	r20, r17
     b20:	6c 2f       	mov	r22, r28
     b22:	6d 0f       	add	r22, r29
     b24:	c6 01       	movw	r24, r12
     b26:	b7 d5       	rcall	.+2926   	; 0x1696 <u8g_DrawPixel>
     b28:	40 2f       	mov	r20, r16
     b2a:	4d 0f       	add	r20, r29
     b2c:	61 2f       	mov	r22, r17
     b2e:	6c 0f       	add	r22, r28
     b30:	c6 01       	movw	r24, r12
     b32:	b1 d5       	rcall	.+2914   	; 0x1696 <u8g_DrawPixel>
     b34:	e2 fe       	sbrs	r14, 2
     b36:	0c c0       	rjmp	.+24     	; 0xb50 <u8g_draw_circle_section+0x84>
     b38:	40 2f       	mov	r20, r16
     b3a:	41 0f       	add	r20, r17
     b3c:	6c 2f       	mov	r22, r28
     b3e:	6d 1b       	sub	r22, r29
     b40:	c6 01       	movw	r24, r12
     b42:	a9 d5       	rcall	.+2898   	; 0x1696 <u8g_DrawPixel>
     b44:	40 2f       	mov	r20, r16
     b46:	4d 0f       	add	r20, r29
     b48:	6c 2f       	mov	r22, r28
     b4a:	61 1b       	sub	r22, r17
     b4c:	c6 01       	movw	r24, r12
     b4e:	a3 d5       	rcall	.+2886   	; 0x1696 <u8g_DrawPixel>
     b50:	df 91       	pop	r29
     b52:	cf 91       	pop	r28
     b54:	1f 91       	pop	r17
     b56:	0f 91       	pop	r16
     b58:	ef 90       	pop	r14
     b5a:	df 90       	pop	r13
     b5c:	cf 90       	pop	r12
     b5e:	08 95       	ret

00000b60 <u8g_draw_disc_section>:
     b60:	cf 92       	push	r12
     b62:	df 92       	push	r13
     b64:	ef 92       	push	r14
     b66:	0f 93       	push	r16
     b68:	1f 93       	push	r17
     b6a:	cf 93       	push	r28
     b6c:	df 93       	push	r29
     b6e:	6c 01       	movw	r12, r24
     b70:	c6 2f       	mov	r28, r22
     b72:	14 2f       	mov	r17, r20
     b74:	d2 2f       	mov	r29, r18
     b76:	e0 fe       	sbrs	r14, 0
     b78:	0f c0       	rjmp	.+30     	; 0xb98 <u8g_draw_disc_section+0x38>
     b7a:	21 e0       	ldi	r18, 0x01	; 1
     b7c:	24 0f       	add	r18, r20
     b7e:	40 2f       	mov	r20, r16
     b80:	41 1b       	sub	r20, r17
     b82:	6d 2f       	mov	r22, r29
     b84:	6c 0f       	add	r22, r28
     b86:	c9 d6       	rcall	.+3474   	; 0x191a <u8g_DrawVLine>
     b88:	21 e0       	ldi	r18, 0x01	; 1
     b8a:	2c 0f       	add	r18, r28
     b8c:	40 2f       	mov	r20, r16
     b8e:	4c 1b       	sub	r20, r28
     b90:	61 2f       	mov	r22, r17
     b92:	6d 0f       	add	r22, r29
     b94:	c6 01       	movw	r24, r12
     b96:	c1 d6       	rcall	.+3458   	; 0x191a <u8g_DrawVLine>
     b98:	e1 fe       	sbrs	r14, 1
     b9a:	10 c0       	rjmp	.+32     	; 0xbbc <u8g_draw_disc_section+0x5c>
     b9c:	21 e0       	ldi	r18, 0x01	; 1
     b9e:	21 0f       	add	r18, r17
     ba0:	40 2f       	mov	r20, r16
     ba2:	41 1b       	sub	r20, r17
     ba4:	6d 2f       	mov	r22, r29
     ba6:	6c 1b       	sub	r22, r28
     ba8:	c6 01       	movw	r24, r12
     baa:	b7 d6       	rcall	.+3438   	; 0x191a <u8g_DrawVLine>
     bac:	21 e0       	ldi	r18, 0x01	; 1
     bae:	2c 0f       	add	r18, r28
     bb0:	40 2f       	mov	r20, r16
     bb2:	4c 1b       	sub	r20, r28
     bb4:	6d 2f       	mov	r22, r29
     bb6:	61 1b       	sub	r22, r17
     bb8:	c6 01       	movw	r24, r12
     bba:	af d6       	rcall	.+3422   	; 0x191a <u8g_DrawVLine>
     bbc:	e3 fe       	sbrs	r14, 3
     bbe:	0e c0       	rjmp	.+28     	; 0xbdc <u8g_draw_disc_section+0x7c>
     bc0:	21 e0       	ldi	r18, 0x01	; 1
     bc2:	21 0f       	add	r18, r17
     bc4:	40 2f       	mov	r20, r16
     bc6:	6d 2f       	mov	r22, r29
     bc8:	6c 0f       	add	r22, r28
     bca:	c6 01       	movw	r24, r12
     bcc:	a6 d6       	rcall	.+3404   	; 0x191a <u8g_DrawVLine>
     bce:	21 e0       	ldi	r18, 0x01	; 1
     bd0:	2c 0f       	add	r18, r28
     bd2:	40 2f       	mov	r20, r16
     bd4:	61 2f       	mov	r22, r17
     bd6:	6d 0f       	add	r22, r29
     bd8:	c6 01       	movw	r24, r12
     bda:	9f d6       	rcall	.+3390   	; 0x191a <u8g_DrawVLine>
     bdc:	e2 fe       	sbrs	r14, 2
     bde:	0e c0       	rjmp	.+28     	; 0xbfc <u8g_draw_disc_section+0x9c>
     be0:	21 e0       	ldi	r18, 0x01	; 1
     be2:	21 0f       	add	r18, r17
     be4:	6d 2f       	mov	r22, r29
     be6:	6c 1b       	sub	r22, r28
     be8:	40 2f       	mov	r20, r16
     bea:	c6 01       	movw	r24, r12
     bec:	96 d6       	rcall	.+3372   	; 0x191a <u8g_DrawVLine>
     bee:	21 e0       	ldi	r18, 0x01	; 1
     bf0:	2c 0f       	add	r18, r28
     bf2:	6d 2f       	mov	r22, r29
     bf4:	61 1b       	sub	r22, r17
     bf6:	40 2f       	mov	r20, r16
     bf8:	c6 01       	movw	r24, r12
     bfa:	8f d6       	rcall	.+3358   	; 0x191a <u8g_DrawVLine>
     bfc:	df 91       	pop	r29
     bfe:	cf 91       	pop	r28
     c00:	1f 91       	pop	r17
     c02:	0f 91       	pop	r16
     c04:	ef 90       	pop	r14
     c06:	df 90       	pop	r13
     c08:	cf 90       	pop	r12
     c0a:	08 95       	ret

00000c0c <u8g_draw_circle>:
     c0c:	a0 e0       	ldi	r26, 0x00	; 0
     c0e:	b0 e0       	ldi	r27, 0x00	; 0
     c10:	ec e0       	ldi	r30, 0x0C	; 12
     c12:	f6 e0       	ldi	r31, 0x06	; 6
     c14:	0c 94 49 12 	jmp	0x2492	; 0x2492 <__prologue_saves__+0xe>
     c18:	6c 01       	movw	r12, r24
     c1a:	b6 2e       	mov	r11, r22
     c1c:	a4 2e       	mov	r10, r20
     c1e:	c2 2f       	mov	r28, r18
     c20:	90 2e       	mov	r9, r16
     c22:	d1 e0       	ldi	r29, 0x01	; 1
     c24:	d2 1b       	sub	r29, r18
     c26:	f2 2e       	mov	r15, r18
     c28:	f1 94       	neg	r15
     c2a:	ff 0c       	add	r15, r15
     c2c:	e0 2e       	mov	r14, r16
     c2e:	04 2f       	mov	r16, r20
     c30:	26 2f       	mov	r18, r22
     c32:	4c 2f       	mov	r20, r28
     c34:	60 e0       	ldi	r22, 0x00	; 0
     c36:	4a df       	rcall	.-364    	; 0xacc <u8g_draw_circle_section>
     c38:	10 e0       	ldi	r17, 0x00	; 0
     c3a:	1c 17       	cp	r17, r28
     c3c:	98 f4       	brcc	.+38     	; 0xc64 <u8g_draw_circle+0x58>
     c3e:	d7 fd       	sbrc	r29, 7
     c40:	04 c0       	rjmp	.+8      	; 0xc4a <u8g_draw_circle+0x3e>
     c42:	c1 50       	subi	r28, 0x01	; 1
     c44:	f3 94       	inc	r15
     c46:	f3 94       	inc	r15
     c48:	df 0d       	add	r29, r15
     c4a:	1f 5f       	subi	r17, 0xFF	; 255
     c4c:	91 2f       	mov	r25, r17
     c4e:	99 0f       	add	r25, r25
     c50:	9f 5f       	subi	r25, 0xFF	; 255
     c52:	d9 0f       	add	r29, r25
     c54:	e9 2c       	mov	r14, r9
     c56:	0a 2d       	mov	r16, r10
     c58:	2b 2d       	mov	r18, r11
     c5a:	4c 2f       	mov	r20, r28
     c5c:	61 2f       	mov	r22, r17
     c5e:	c6 01       	movw	r24, r12
     c60:	35 df       	rcall	.-406    	; 0xacc <u8g_draw_circle_section>
     c62:	eb cf       	rjmp	.-42     	; 0xc3a <u8g_draw_circle+0x2e>
     c64:	cd b7       	in	r28, 0x3d	; 61
     c66:	de b7       	in	r29, 0x3e	; 62
     c68:	eb e0       	ldi	r30, 0x0B	; 11
     c6a:	0c 94 65 12 	jmp	0x24ca	; 0x24ca <__epilogue_restores__+0xe>

00000c6e <u8g_DrawCircle>:
     c6e:	a0 e0       	ldi	r26, 0x00	; 0
     c70:	b0 e0       	ldi	r27, 0x00	; 0
     c72:	ed e3       	ldi	r30, 0x3D	; 61
     c74:	f6 e0       	ldi	r31, 0x06	; 6
     c76:	0c 94 4d 12 	jmp	0x249a	; 0x249a <__prologue_saves__+0x16>
     c7a:	ec 01       	movw	r28, r24
     c7c:	16 2f       	mov	r17, r22
     c7e:	f4 2e       	mov	r15, r20
     c80:	e2 2e       	mov	r14, r18
     c82:	d0 2e       	mov	r13, r16
     c84:	91 e0       	ldi	r25, 0x01	; 1
     c86:	92 0f       	add	r25, r18
     c88:	29 2f       	mov	r18, r25
     c8a:	22 0f       	add	r18, r18
     c8c:	49 1b       	sub	r20, r25
     c8e:	69 1b       	sub	r22, r25
     c90:	02 2f       	mov	r16, r18
     c92:	ce 01       	movw	r24, r28
     c94:	5f d0       	rcall	.+190    	; 0xd54 <u8g_IsBBXIntersection>
     c96:	88 23       	and	r24, r24
     c98:	31 f0       	breq	.+12     	; 0xca6 <u8g_DrawCircle+0x38>
     c9a:	0d 2d       	mov	r16, r13
     c9c:	2e 2d       	mov	r18, r14
     c9e:	4f 2d       	mov	r20, r15
     ca0:	61 2f       	mov	r22, r17
     ca2:	ce 01       	movw	r24, r28
     ca4:	b3 df       	rcall	.-154    	; 0xc0c <u8g_draw_circle>
     ca6:	cd b7       	in	r28, 0x3d	; 61
     ca8:	de b7       	in	r29, 0x3e	; 62
     caa:	e7 e0       	ldi	r30, 0x07	; 7
     cac:	0c 94 69 12 	jmp	0x24d2	; 0x24d2 <__epilogue_restores__+0x16>

00000cb0 <u8g_draw_disc>:
     cb0:	a0 e0       	ldi	r26, 0x00	; 0
     cb2:	b0 e0       	ldi	r27, 0x00	; 0
     cb4:	ee e5       	ldi	r30, 0x5E	; 94
     cb6:	f6 e0       	ldi	r31, 0x06	; 6
     cb8:	0c 94 49 12 	jmp	0x2492	; 0x2492 <__prologue_saves__+0xe>
     cbc:	6c 01       	movw	r12, r24
     cbe:	b6 2e       	mov	r11, r22
     cc0:	a4 2e       	mov	r10, r20
     cc2:	c2 2f       	mov	r28, r18
     cc4:	90 2e       	mov	r9, r16
     cc6:	d1 e0       	ldi	r29, 0x01	; 1
     cc8:	d2 1b       	sub	r29, r18
     cca:	f2 2e       	mov	r15, r18
     ccc:	f1 94       	neg	r15
     cce:	ff 0c       	add	r15, r15
     cd0:	e0 2e       	mov	r14, r16
     cd2:	04 2f       	mov	r16, r20
     cd4:	26 2f       	mov	r18, r22
     cd6:	4c 2f       	mov	r20, r28
     cd8:	60 e0       	ldi	r22, 0x00	; 0
     cda:	42 df       	rcall	.-380    	; 0xb60 <u8g_draw_disc_section>
     cdc:	10 e0       	ldi	r17, 0x00	; 0
     cde:	1c 17       	cp	r17, r28
     ce0:	98 f4       	brcc	.+38     	; 0xd08 <u8g_draw_disc+0x58>
     ce2:	d7 fd       	sbrc	r29, 7
     ce4:	04 c0       	rjmp	.+8      	; 0xcee <u8g_draw_disc+0x3e>
     ce6:	c1 50       	subi	r28, 0x01	; 1
     ce8:	f3 94       	inc	r15
     cea:	f3 94       	inc	r15
     cec:	df 0d       	add	r29, r15
     cee:	1f 5f       	subi	r17, 0xFF	; 255
     cf0:	91 2f       	mov	r25, r17
     cf2:	99 0f       	add	r25, r25
     cf4:	9f 5f       	subi	r25, 0xFF	; 255
     cf6:	d9 0f       	add	r29, r25
     cf8:	e9 2c       	mov	r14, r9
     cfa:	0a 2d       	mov	r16, r10
     cfc:	2b 2d       	mov	r18, r11
     cfe:	4c 2f       	mov	r20, r28
     d00:	61 2f       	mov	r22, r17
     d02:	c6 01       	movw	r24, r12
     d04:	2d df       	rcall	.-422    	; 0xb60 <u8g_draw_disc_section>
     d06:	eb cf       	rjmp	.-42     	; 0xcde <u8g_draw_disc+0x2e>
     d08:	cd b7       	in	r28, 0x3d	; 61
     d0a:	de b7       	in	r29, 0x3e	; 62
     d0c:	eb e0       	ldi	r30, 0x0B	; 11
     d0e:	0c 94 65 12 	jmp	0x24ca	; 0x24ca <__epilogue_restores__+0xe>

00000d12 <u8g_DrawDisc>:
     d12:	a0 e0       	ldi	r26, 0x00	; 0
     d14:	b0 e0       	ldi	r27, 0x00	; 0
     d16:	ef e8       	ldi	r30, 0x8F	; 143
     d18:	f6 e0       	ldi	r31, 0x06	; 6
     d1a:	0c 94 4d 12 	jmp	0x249a	; 0x249a <__prologue_saves__+0x16>
     d1e:	ec 01       	movw	r28, r24
     d20:	16 2f       	mov	r17, r22
     d22:	f4 2e       	mov	r15, r20
     d24:	e2 2e       	mov	r14, r18
     d26:	d0 2e       	mov	r13, r16
     d28:	91 e0       	ldi	r25, 0x01	; 1
     d2a:	92 0f       	add	r25, r18
     d2c:	29 2f       	mov	r18, r25
     d2e:	22 0f       	add	r18, r18
     d30:	49 1b       	sub	r20, r25
     d32:	69 1b       	sub	r22, r25
     d34:	02 2f       	mov	r16, r18
     d36:	ce 01       	movw	r24, r28
     d38:	0d d0       	rcall	.+26     	; 0xd54 <u8g_IsBBXIntersection>
     d3a:	88 23       	and	r24, r24
     d3c:	31 f0       	breq	.+12     	; 0xd4a <u8g_DrawDisc+0x38>
     d3e:	0d 2d       	mov	r16, r13
     d40:	2e 2d       	mov	r18, r14
     d42:	4f 2d       	mov	r20, r15
     d44:	61 2f       	mov	r22, r17
     d46:	ce 01       	movw	r24, r28
     d48:	b3 df       	rcall	.-154    	; 0xcb0 <u8g_draw_disc>
     d4a:	cd b7       	in	r28, 0x3d	; 61
     d4c:	de b7       	in	r29, 0x3e	; 62
     d4e:	e7 e0       	ldi	r30, 0x07	; 7
     d50:	0c 94 69 12 	jmp	0x24d2	; 0x24d2 <__epilogue_restores__+0x16>

00000d54 <u8g_IsBBXIntersection>:
     d54:	0f 93       	push	r16
     d56:	fc 01       	movw	r30, r24
     d58:	01 50       	subi	r16, 0x01	; 1
     d5a:	04 0f       	add	r16, r20
     d5c:	84 a9       	ldd	r24, Z+52	; 0x34
     d5e:	96 a9       	ldd	r25, Z+54	; 0x36
     d60:	94 17       	cp	r25, r20
     d62:	18 f0       	brcs	.+6      	; 0xd6a <u8g_IsBBXIntersection+0x16>
     d64:	08 17       	cp	r16, r24
     d66:	28 f4       	brcc	.+10     	; 0xd72 <u8g_IsBBXIntersection+0x1e>
     d68:	02 c0       	rjmp	.+4      	; 0xd6e <u8g_IsBBXIntersection+0x1a>
     d6a:	08 17       	cp	r16, r24
     d6c:	50 f0       	brcs	.+20     	; 0xd82 <u8g_IsBBXIntersection+0x2e>
     d6e:	04 17       	cp	r16, r20
     d70:	40 f4       	brcc	.+16     	; 0xd82 <u8g_IsBBXIntersection+0x2e>
     d72:	21 50       	subi	r18, 0x01	; 1
     d74:	26 0f       	add	r18, r22
     d76:	83 a9       	ldd	r24, Z+51	; 0x33
     d78:	95 a9       	ldd	r25, Z+53	; 0x35
     d7a:	96 17       	cp	r25, r22
     d7c:	20 f4       	brcc	.+8      	; 0xd86 <u8g_IsBBXIntersection+0x32>
     d7e:	28 17       	cp	r18, r24
     d80:	20 f4       	brcc	.+8      	; 0xd8a <u8g_IsBBXIntersection+0x36>
     d82:	80 e0       	ldi	r24, 0x00	; 0
     d84:	07 c0       	rjmp	.+14     	; 0xd94 <u8g_IsBBXIntersection+0x40>
     d86:	28 17       	cp	r18, r24
     d88:	20 f4       	brcc	.+8      	; 0xd92 <u8g_IsBBXIntersection+0x3e>
     d8a:	81 e0       	ldi	r24, 0x01	; 1
     d8c:	26 17       	cp	r18, r22
     d8e:	10 f0       	brcs	.+4      	; 0xd94 <u8g_IsBBXIntersection+0x40>
     d90:	f8 cf       	rjmp	.-16     	; 0xd82 <u8g_IsBBXIntersection+0x2e>
     d92:	81 e0       	ldi	r24, 0x01	; 1
     d94:	0f 91       	pop	r16
     d96:	08 95       	ret

00000d98 <u8g_get_avr_io_ptr>:
     d98:	a2 e0       	ldi	r26, 0x02	; 2
     d9a:	b0 e0       	ldi	r27, 0x00	; 0
     d9c:	e2 ed       	ldi	r30, 0xD2	; 210
     d9e:	f6 e0       	ldi	r31, 0x06	; 6
     da0:	0c 94 52 12 	jmp	0x24a4	; 0x24a4 <__prologue_saves__+0x20>
     da4:	86 0f       	add	r24, r22
     da6:	91 1d       	adc	r25, r1
     da8:	86 0f       	add	r24, r22
     daa:	91 1d       	adc	r25, r1
     dac:	42 e0       	ldi	r20, 0x02	; 2
     dae:	50 e0       	ldi	r21, 0x00	; 0
     db0:	bc 01       	movw	r22, r24
     db2:	ce 01       	movw	r24, r28
     db4:	01 96       	adiw	r24, 0x01	; 1
     db6:	0e 94 25 14 	call	0x284a	; 0x284a <memcpy_P>
     dba:	89 81       	ldd	r24, Y+1	; 0x01
     dbc:	9a 81       	ldd	r25, Y+2	; 0x02
     dbe:	22 96       	adiw	r28, 0x02	; 2
     dc0:	e2 e0       	ldi	r30, 0x02	; 2
     dc2:	0c 94 6e 12 	jmp	0x24dc	; 0x24dc <__epilogue_restores__+0x20>

00000dc6 <u8g_Pin>:
     dc6:	98 e0       	ldi	r25, 0x08	; 8
     dc8:	89 9f       	mul	r24, r25
     dca:	60 0d       	add	r22, r0
     dcc:	11 24       	eor	r1, r1
     dce:	86 2f       	mov	r24, r22
     dd0:	08 95       	ret

00000dd2 <u8g_SetPinOutput>:
     dd2:	cf 93       	push	r28
     dd4:	c8 2f       	mov	r28, r24
     dd6:	68 2f       	mov	r22, r24
     dd8:	66 95       	lsr	r22
     dda:	66 95       	lsr	r22
     ddc:	66 95       	lsr	r22
     dde:	8e ef       	ldi	r24, 0xFE	; 254
     de0:	90 e0       	ldi	r25, 0x00	; 0
     de2:	da df       	rcall	.-76     	; 0xd98 <u8g_get_avr_io_ptr>
     de4:	fc 01       	movw	r30, r24
     de6:	40 81       	ld	r20, Z
     de8:	c7 70       	andi	r28, 0x07	; 7
     dea:	21 e0       	ldi	r18, 0x01	; 1
     dec:	30 e0       	ldi	r19, 0x00	; 0
     dee:	01 c0       	rjmp	.+2      	; 0xdf2 <u8g_SetPinOutput+0x20>
     df0:	22 0f       	add	r18, r18
     df2:	ca 95       	dec	r28
     df4:	ea f7       	brpl	.-6      	; 0xdf0 <u8g_SetPinOutput+0x1e>
     df6:	24 2b       	or	r18, r20
     df8:	20 83       	st	Z, r18
     dfa:	cf 91       	pop	r28
     dfc:	08 95       	ret

00000dfe <u8g_SetPinLevel>:
     dfe:	cf 93       	push	r28
     e00:	df 93       	push	r29
     e02:	c8 2f       	mov	r28, r24
     e04:	d6 2f       	mov	r29, r22
     e06:	68 2f       	mov	r22, r24
     e08:	66 95       	lsr	r22
     e0a:	66 95       	lsr	r22
     e0c:	66 95       	lsr	r22
     e0e:	86 ef       	ldi	r24, 0xF6	; 246
     e10:	90 e0       	ldi	r25, 0x00	; 0
     e12:	c2 df       	rcall	.-124    	; 0xd98 <u8g_get_avr_io_ptr>
     e14:	fc 01       	movw	r30, r24
     e16:	c7 70       	andi	r28, 0x07	; 7
     e18:	8f b7       	in	r24, 0x3f	; 63
     e1a:	d1 11       	cpse	r29, r1
     e1c:	0b c0       	rjmp	.+22     	; 0xe34 <u8g_SetPinLevel+0x36>
     e1e:	f8 94       	cli
     e20:	90 81       	ld	r25, Z
     e22:	21 e0       	ldi	r18, 0x01	; 1
     e24:	30 e0       	ldi	r19, 0x00	; 0
     e26:	01 c0       	rjmp	.+2      	; 0xe2a <u8g_SetPinLevel+0x2c>
     e28:	22 0f       	add	r18, r18
     e2a:	ca 95       	dec	r28
     e2c:	ea f7       	brpl	.-6      	; 0xe28 <u8g_SetPinLevel+0x2a>
     e2e:	20 95       	com	r18
     e30:	29 23       	and	r18, r25
     e32:	09 c0       	rjmp	.+18     	; 0xe46 <u8g_SetPinLevel+0x48>
     e34:	f8 94       	cli
     e36:	90 81       	ld	r25, Z
     e38:	21 e0       	ldi	r18, 0x01	; 1
     e3a:	30 e0       	ldi	r19, 0x00	; 0
     e3c:	01 c0       	rjmp	.+2      	; 0xe40 <u8g_SetPinLevel+0x42>
     e3e:	22 0f       	add	r18, r18
     e40:	ca 95       	dec	r28
     e42:	ea f7       	brpl	.-6      	; 0xe3e <u8g_SetPinLevel+0x40>
     e44:	29 2b       	or	r18, r25
     e46:	20 83       	st	Z, r18
     e48:	8f bf       	out	0x3f, r24	; 63
     e4a:	df 91       	pop	r29
     e4c:	cf 91       	pop	r28
     e4e:	08 95       	ret

00000e50 <u8g_SetPIOutput>:
     e50:	86 0f       	add	r24, r22
     e52:	91 1d       	adc	r25, r1
     e54:	fc 01       	movw	r30, r24
     e56:	83 a1       	ldd	r24, Z+35	; 0x23
     e58:	8f 3f       	cpi	r24, 0xFF	; 255
     e5a:	09 f0       	breq	.+2      	; 0xe5e <u8g_SetPIOutput+0xe>
     e5c:	ba cf       	rjmp	.-140    	; 0xdd2 <u8g_SetPinOutput>
     e5e:	08 95       	ret

00000e60 <u8g_SetPILevel>:
     e60:	86 0f       	add	r24, r22
     e62:	91 1d       	adc	r25, r1
     e64:	fc 01       	movw	r30, r24
     e66:	83 a1       	ldd	r24, Z+35	; 0x23
     e68:	8f 3f       	cpi	r24, 0xFF	; 255
     e6a:	11 f0       	breq	.+4      	; 0xe70 <u8g_SetPILevel+0x10>
     e6c:	64 2f       	mov	r22, r20
     e6e:	c7 cf       	rjmp	.-114    	; 0xdfe <u8g_SetPinLevel>
     e70:	08 95       	ret

00000e72 <u8g_Delay>:
    milliseconds can be achieved.
 */
void
_delay_loop_2(uint16_t __count)
{
	__asm__ volatile (
     e72:	2e e9       	ldi	r18, 0x9E	; 158
     e74:	3f e0       	ldi	r19, 0x0F	; 15
     e76:	00 97       	sbiw	r24, 0x00	; 0
     e78:	29 f0       	breq	.+10     	; 0xe84 <u8g_Delay+0x12>
     e7a:	f9 01       	movw	r30, r18
     e7c:	31 97       	sbiw	r30, 0x01	; 1
     e7e:	f1 f7       	brne	.-4      	; 0xe7c <u8g_Delay+0xa>
     e80:	01 97       	sbiw	r24, 0x01	; 1
     e82:	f9 cf       	rjmp	.-14     	; 0xe76 <u8g_Delay+0x4>
     e84:	08 95       	ret

00000e86 <u8g_MicroDelay>:
     e86:	84 e0       	ldi	r24, 0x04	; 4
     e88:	90 e0       	ldi	r25, 0x00	; 0
     e8a:	01 97       	sbiw	r24, 0x01	; 1
     e8c:	f1 f7       	brne	.-4      	; 0xe8a <u8g_MicroDelay+0x4>
     e8e:	08 95       	ret

00000e90 <u8g_10MicroDelay>:
     e90:	88 e2       	ldi	r24, 0x28	; 40
     e92:	90 e0       	ldi	r25, 0x00	; 0
     e94:	01 97       	sbiw	r24, 0x01	; 1
     e96:	f1 f7       	brne	.-4      	; 0xe94 <u8g_10MicroDelay+0x4>
     e98:	08 95       	ret

00000e9a <u8g_dev_st7920_128x64_fn>:
     e9a:	a0 e0       	ldi	r26, 0x00	; 0
     e9c:	b0 e0       	ldi	r27, 0x00	; 0
     e9e:	e3 e5       	ldi	r30, 0x53	; 83
     ea0:	f7 e0       	ldi	r31, 0x07	; 7
     ea2:	0c 94 49 12 	jmp	0x2492	; 0x2492 <__prologue_saves__+0xe>
     ea6:	8c 01       	movw	r16, r24
     ea8:	eb 01       	movw	r28, r22
     eaa:	e4 2e       	mov	r14, r20
     eac:	59 01       	movw	r10, r18
     eae:	8a e0       	ldi	r24, 0x0A	; 10
     eb0:	48 17       	cp	r20, r24
     eb2:	b1 f0       	breq	.+44     	; 0xee0 <u8g_dev_st7920_128x64_fn+0x46>
     eb4:	e5 e1       	ldi	r30, 0x15	; 21
     eb6:	4e 13       	cpse	r20, r30
     eb8:	55 c0       	rjmp	.+170    	; 0xf64 <u8g_dev_st7920_128x64_fn+0xca>
     eba:	ca 80       	ldd	r12, Y+2	; 0x02
     ebc:	db 80       	ldd	r13, Y+3	; 0x03
     ebe:	40 e0       	ldi	r20, 0x00	; 0
     ec0:	c8 01       	movw	r24, r16
     ec2:	0e 94 40 10 	call	0x2080	; 0x2080 <u8g_SetAddress>
     ec6:	41 e0       	ldi	r20, 0x01	; 1
     ec8:	be 01       	movw	r22, r28
     eca:	c8 01       	movw	r24, r16
     ecc:	0e 94 20 10 	call	0x2040	; 0x2040 <u8g_SetChipSelect>
     ed0:	f6 01       	movw	r30, r12
     ed2:	f2 80       	ldd	r15, Z+2	; 0x02
     ed4:	c6 80       	ldd	r12, Z+6	; 0x06
     ed6:	d7 80       	ldd	r13, Z+7	; 0x07
     ed8:	88 e0       	ldi	r24, 0x08	; 8
     eda:	98 2e       	mov	r9, r24
     edc:	9f 0c       	add	r9, r15
     ede:	0b c0       	rjmp	.+22     	; 0xef6 <u8g_dev_st7920_128x64_fn+0x5c>
     ee0:	43 e0       	ldi	r20, 0x03	; 3
     ee2:	c8 01       	movw	r24, r16
     ee4:	0e 94 16 10 	call	0x202c	; 0x202c <u8g_InitCom>
     ee8:	46 e0       	ldi	r20, 0x06	; 6
     eea:	51 e0       	ldi	r21, 0x01	; 1
     eec:	be 01       	movw	r22, r28
     eee:	c8 01       	movw	r24, r16
     ef0:	0e 94 5c 10 	call	0x20b8	; 0x20b8 <u8g_WriteEscSeqP>
     ef4:	37 c0       	rjmp	.+110    	; 0xf64 <u8g_dev_st7920_128x64_fn+0xca>
     ef6:	40 e0       	ldi	r20, 0x00	; 0
     ef8:	be 01       	movw	r22, r28
     efa:	c8 01       	movw	r24, r16
     efc:	0e 94 40 10 	call	0x2080	; 0x2080 <u8g_SetAddress>
     f00:	4e e3       	ldi	r20, 0x3E	; 62
     f02:	be 01       	movw	r22, r28
     f04:	c8 01       	movw	r24, r16
     f06:	0e 94 4a 10 	call	0x2094	; 0x2094 <u8g_WriteByte>
     f0a:	ff e1       	ldi	r31, 0x1F	; 31
     f0c:	ff 15       	cp	r31, r15
     f0e:	40 f0       	brcs	.+16     	; 0xf20 <u8g_dev_st7920_128x64_fn+0x86>
     f10:	4f 2d       	mov	r20, r15
     f12:	40 68       	ori	r20, 0x80	; 128
     f14:	be 01       	movw	r22, r28
     f16:	c8 01       	movw	r24, r16
     f18:	0e 94 4a 10 	call	0x2094	; 0x2094 <u8g_WriteByte>
     f1c:	40 e8       	ldi	r20, 0x80	; 128
     f1e:	08 c0       	rjmp	.+16     	; 0xf30 <u8g_dev_st7920_128x64_fn+0x96>
     f20:	40 ee       	ldi	r20, 0xE0	; 224
     f22:	4f 0d       	add	r20, r15
     f24:	40 68       	ori	r20, 0x80	; 128
     f26:	be 01       	movw	r22, r28
     f28:	c8 01       	movw	r24, r16
     f2a:	0e 94 4a 10 	call	0x2094	; 0x2094 <u8g_WriteByte>
     f2e:	48 e8       	ldi	r20, 0x88	; 136
     f30:	be 01       	movw	r22, r28
     f32:	c8 01       	movw	r24, r16
     f34:	0e 94 4a 10 	call	0x2094	; 0x2094 <u8g_WriteByte>
     f38:	41 e0       	ldi	r20, 0x01	; 1
     f3a:	be 01       	movw	r22, r28
     f3c:	c8 01       	movw	r24, r16
     f3e:	0e 94 40 10 	call	0x2080	; 0x2080 <u8g_SetAddress>
     f42:	96 01       	movw	r18, r12
     f44:	40 e1       	ldi	r20, 0x10	; 16
     f46:	be 01       	movw	r22, r28
     f48:	c8 01       	movw	r24, r16
     f4a:	0e 94 54 10 	call	0x20a8	; 0x20a8 <u8g_WriteSequence>
     f4e:	80 e1       	ldi	r24, 0x10	; 16
     f50:	c8 0e       	add	r12, r24
     f52:	d1 1c       	adc	r13, r1
     f54:	f3 94       	inc	r15
     f56:	f9 10       	cpse	r15, r9
     f58:	ce cf       	rjmp	.-100    	; 0xef6 <u8g_dev_st7920_128x64_fn+0x5c>
     f5a:	40 e0       	ldi	r20, 0x00	; 0
     f5c:	be 01       	movw	r22, r28
     f5e:	c8 01       	movw	r24, r16
     f60:	0e 94 20 10 	call	0x2040	; 0x2040 <u8g_SetChipSelect>
     f64:	95 01       	movw	r18, r10
     f66:	4e 2d       	mov	r20, r14
     f68:	be 01       	movw	r22, r28
     f6a:	c8 01       	movw	r24, r16
     f6c:	22 d4       	rcall	.+2116   	; 0x17b2 <u8g_dev_pb8h1_base_fn>
     f6e:	cd b7       	in	r28, 0x3d	; 61
     f70:	de b7       	in	r29, 0x3e	; 62
     f72:	eb e0       	ldi	r30, 0x0B	; 11
     f74:	0c 94 65 12 	jmp	0x24ca	; 0x24ca <__epilogue_restores__+0xe>

00000f78 <u8g_font_get_word>:
     f78:	fc 01       	movw	r30, r24
     f7a:	e6 0f       	add	r30, r22
     f7c:	f1 1d       	adc	r31, r1
     f7e:	84 91       	lpm	r24, Z
     f80:	90 e0       	ldi	r25, 0x00	; 0
     f82:	98 2f       	mov	r25, r24
     f84:	88 27       	eor	r24, r24
     f86:	31 96       	adiw	r30, 0x01	; 1
     f88:	e4 91       	lpm	r30, Z
     f8a:	8e 0f       	add	r24, r30
     f8c:	91 1d       	adc	r25, r1
     f8e:	08 95       	ret

00000f90 <u8g_font_GetFormat>:
     f90:	fc 01       	movw	r30, r24
     f92:	84 91       	lpm	r24, Z
     f94:	08 95       	ret

00000f96 <u8g_font_GetFontGlyphStructureSize>:
     f96:	fc df       	rcall	.-8      	; 0xf90 <u8g_font_GetFormat>
     f98:	88 23       	and	r24, r24
     f9a:	21 f0       	breq	.+8      	; 0xfa4 <u8g_font_GetFontGlyphStructureSize+0xe>
     f9c:	82 30       	cpi	r24, 0x02	; 2
     f9e:	11 f0       	breq	.+4      	; 0xfa4 <u8g_font_GetFontGlyphStructureSize+0xe>
     fa0:	83 e0       	ldi	r24, 0x03	; 3
     fa2:	08 95       	ret
     fa4:	86 e0       	ldi	r24, 0x06	; 6
     fa6:	08 95       	ret

00000fa8 <u8g_font_calc_vref_font>:
     fa8:	80 e0       	ldi	r24, 0x00	; 0
     faa:	08 95       	ret

00000fac <u8g_font_GetEncoding65Pos>:
     fac:	66 e0       	ldi	r22, 0x06	; 6
     fae:	e4 cf       	rjmp	.-56     	; 0xf78 <u8g_font_get_word>

00000fb0 <u8g_font_GetEncoding97Pos>:
     fb0:	68 e0       	ldi	r22, 0x08	; 8
     fb2:	e2 cf       	rjmp	.-60     	; 0xf78 <u8g_font_get_word>

00000fb4 <u8g_font_GetFontStartEncoding>:
     fb4:	0a 96       	adiw	r24, 0x0a	; 10
     fb6:	fc 01       	movw	r30, r24
     fb8:	84 91       	lpm	r24, Z
     fba:	08 95       	ret

00000fbc <u8g_font_GetFontEndEncoding>:
     fbc:	0b 96       	adiw	r24, 0x0b	; 11
     fbe:	fc 01       	movw	r30, r24
     fc0:	84 91       	lpm	r24, Z
     fc2:	08 95       	ret

00000fc4 <u8g_GetGlyph>:
     fc4:	a0 e0       	ldi	r26, 0x00	; 0
     fc6:	b0 e0       	ldi	r27, 0x00	; 0
     fc8:	e8 ee       	ldi	r30, 0xE8	; 232
     fca:	f7 e0       	ldi	r31, 0x07	; 7
     fcc:	0c 94 4b 12 	jmp	0x2496	; 0x2496 <__prologue_saves__+0x12>
     fd0:	8c 01       	movw	r16, r24
     fd2:	e6 2e       	mov	r14, r22
     fd4:	dc 01       	movw	r26, r24
     fd6:	14 96       	adiw	r26, 0x04	; 4
     fd8:	cd 91       	ld	r28, X+
     fda:	dc 91       	ld	r29, X
     fdc:	15 97       	sbiw	r26, 0x05	; 5
     fde:	ce 01       	movw	r24, r28
     fe0:	d7 df       	rcall	.-82     	; 0xf90 <u8g_font_GetFormat>
     fe2:	f8 2e       	mov	r15, r24
     fe4:	f8 01       	movw	r30, r16
     fe6:	84 81       	ldd	r24, Z+4	; 0x04
     fe8:	95 81       	ldd	r25, Z+5	; 0x05
     fea:	d5 df       	rcall	.-86     	; 0xf96 <u8g_font_GetFontGlyphStructureSize>
     fec:	c8 2e       	mov	r12, r24
     fee:	f1 e0       	ldi	r31, 0x01	; 1
     ff0:	ff 12       	cpse	r15, r31
     ff2:	03 c0       	rjmp	.+6      	; 0xffa <u8g_GetGlyph+0x36>
     ff4:	2f e0       	ldi	r18, 0x0F	; 15
     ff6:	b2 2e       	mov	r11, r18
     ff8:	02 c0       	rjmp	.+4      	; 0xffe <u8g_GetGlyph+0x3a>
     ffa:	bb 24       	eor	r11, r11
     ffc:	ba 94       	dec	r11
     ffe:	d8 01       	movw	r26, r16
    1000:	14 96       	adiw	r26, 0x04	; 4
    1002:	8d 91       	ld	r24, X+
    1004:	9c 91       	ld	r25, X
    1006:	15 97       	sbiw	r26, 0x05	; 5
    1008:	d5 df       	rcall	.-86     	; 0xfb4 <u8g_font_GetFontStartEncoding>
    100a:	f8 2e       	mov	r15, r24
    100c:	f8 01       	movw	r30, r16
    100e:	84 81       	ldd	r24, Z+4	; 0x04
    1010:	95 81       	ldd	r25, Z+5	; 0x05
    1012:	d4 df       	rcall	.-88     	; 0xfbc <u8g_font_GetFontEndEncoding>
    1014:	d8 2e       	mov	r13, r24
    1016:	d8 01       	movw	r26, r16
    1018:	14 96       	adiw	r26, 0x04	; 4
    101a:	8d 91       	ld	r24, X+
    101c:	9c 91       	ld	r25, X
    101e:	15 97       	sbiw	r26, 0x05	; 5
    1020:	c7 df       	rcall	.-114    	; 0xfb0 <u8g_font_GetEncoding97Pos>
    1022:	b0 e6       	ldi	r27, 0x60	; 96
    1024:	be 15       	cp	r27, r14
    1026:	38 f4       	brcc	.+14     	; 0x1036 <u8g_GetGlyph+0x72>
    1028:	00 97       	sbiw	r24, 0x00	; 0
    102a:	29 f0       	breq	.+10     	; 0x1036 <u8g_GetGlyph+0x72>
    102c:	c8 0f       	add	r28, r24
    102e:	d9 1f       	adc	r29, r25
    1030:	91 e6       	ldi	r25, 0x61	; 97
    1032:	f9 2e       	mov	r15, r25
    1034:	0f c0       	rjmp	.+30     	; 0x1054 <u8g_GetGlyph+0x90>
    1036:	f8 01       	movw	r30, r16
    1038:	84 81       	ldd	r24, Z+4	; 0x04
    103a:	95 81       	ldd	r25, Z+5	; 0x05
    103c:	b7 df       	rcall	.-146    	; 0xfac <u8g_font_GetEncoding65Pos>
    103e:	f0 e4       	ldi	r31, 0x40	; 64
    1040:	fe 15       	cp	r31, r14
    1042:	38 f4       	brcc	.+14     	; 0x1052 <u8g_GetGlyph+0x8e>
    1044:	00 97       	sbiw	r24, 0x00	; 0
    1046:	29 f0       	breq	.+10     	; 0x1052 <u8g_GetGlyph+0x8e>
    1048:	c8 0f       	add	r28, r24
    104a:	d9 1f       	adc	r29, r25
    104c:	81 e4       	ldi	r24, 0x41	; 65
    104e:	f8 2e       	mov	r15, r24
    1050:	01 c0       	rjmp	.+2      	; 0x1054 <u8g_GetGlyph+0x90>
    1052:	61 96       	adiw	r28, 0x11	; 17
    1054:	de 14       	cp	r13, r14
    1056:	90 f4       	brcc	.+36     	; 0x107c <u8g_GetGlyph+0xb8>
    1058:	d8 01       	movw	r26, r16
    105a:	50 96       	adiw	r26, 0x10	; 16
    105c:	1c 92       	st	X, r1
    105e:	50 97       	sbiw	r26, 0x10	; 16
    1060:	53 96       	adiw	r26, 0x13	; 19
    1062:	1c 92       	st	X, r1
    1064:	53 97       	sbiw	r26, 0x13	; 19
    1066:	54 96       	adiw	r26, 0x14	; 20
    1068:	1c 92       	st	X, r1
    106a:	54 97       	sbiw	r26, 0x14	; 20
    106c:	51 96       	adiw	r26, 0x11	; 17
    106e:	1c 92       	st	X, r1
    1070:	51 97       	sbiw	r26, 0x11	; 17
    1072:	52 96       	adiw	r26, 0x12	; 18
    1074:	1c 92       	st	X, r1
    1076:	80 e0       	ldi	r24, 0x00	; 0
    1078:	90 e0       	ldi	r25, 0x00	; 0
    107a:	66 c0       	rjmp	.+204    	; 0x1148 <u8g_GetGlyph+0x184>
    107c:	df 14       	cp	r13, r15
    107e:	60 f3       	brcs	.-40     	; 0x1058 <u8g_GetGlyph+0x94>
    1080:	8c 2d       	mov	r24, r12
    1082:	90 e0       	ldi	r25, 0x00	; 0
    1084:	fe 01       	movw	r30, r28
    1086:	24 91       	lpm	r18, Z
    1088:	2f 3f       	cpi	r18, 0xFF	; 255
    108a:	11 f4       	brne	.+4      	; 0x1090 <u8g_GetGlyph+0xcc>
    108c:	21 96       	adiw	r28, 0x01	; 1
    108e:	57 c0       	rjmp	.+174    	; 0x113e <u8g_GetGlyph+0x17a>
    1090:	fe 10       	cpse	r15, r14
    1092:	4c c0       	rjmp	.+152    	; 0x112c <u8g_GetGlyph+0x168>
    1094:	d8 01       	movw	r26, r16
    1096:	14 96       	adiw	r26, 0x04	; 4
    1098:	8d 91       	ld	r24, X+
    109a:	9c 91       	ld	r25, X
    109c:	15 97       	sbiw	r26, 0x05	; 5
    109e:	78 df       	rcall	.-272    	; 0xf90 <u8g_font_GetFormat>
    10a0:	9e 01       	movw	r18, r28
    10a2:	2f 5f       	subi	r18, 0xFF	; 255
    10a4:	3f 4f       	sbci	r19, 0xFF	; 255
    10a6:	fe 01       	movw	r30, r28
    10a8:	88 23       	and	r24, r24
    10aa:	11 f0       	breq	.+4      	; 0x10b0 <u8g_GetGlyph+0xec>
    10ac:	82 30       	cpi	r24, 0x02	; 2
    10ae:	e1 f4       	brne	.+56     	; 0x10e8 <u8g_GetGlyph+0x124>
    10b0:	84 91       	lpm	r24, Z
    10b2:	d8 01       	movw	r26, r16
    10b4:	53 96       	adiw	r26, 0x13	; 19
    10b6:	8c 93       	st	X, r24
    10b8:	53 97       	sbiw	r26, 0x13	; 19
    10ba:	f9 01       	movw	r30, r18
    10bc:	24 91       	lpm	r18, Z
    10be:	54 96       	adiw	r26, 0x14	; 20
    10c0:	2c 93       	st	X, r18
    10c2:	54 97       	sbiw	r26, 0x14	; 20
    10c4:	fe 01       	movw	r30, r28
    10c6:	33 96       	adiw	r30, 0x03	; 3
    10c8:	e4 91       	lpm	r30, Z
    10ca:	50 96       	adiw	r26, 0x10	; 16
    10cc:	ec 93       	st	X, r30
    10ce:	50 97       	sbiw	r26, 0x10	; 16
    10d0:	fe 01       	movw	r30, r28
    10d2:	34 96       	adiw	r30, 0x04	; 4
    10d4:	e4 91       	lpm	r30, Z
    10d6:	51 96       	adiw	r26, 0x11	; 17
    10d8:	ec 93       	st	X, r30
    10da:	51 97       	sbiw	r26, 0x11	; 17
    10dc:	fe 01       	movw	r30, r28
    10de:	35 96       	adiw	r30, 0x05	; 5
    10e0:	e4 91       	lpm	r30, Z
    10e2:	52 96       	adiw	r26, 0x12	; 18
    10e4:	ec 93       	st	X, r30
    10e6:	20 c0       	rjmp	.+64     	; 0x1128 <u8g_GetGlyph+0x164>
    10e8:	84 91       	lpm	r24, Z
    10ea:	98 2f       	mov	r25, r24
    10ec:	9f 70       	andi	r25, 0x0F	; 15
    10ee:	92 50       	subi	r25, 0x02	; 2
    10f0:	d8 01       	movw	r26, r16
    10f2:	52 96       	adiw	r26, 0x12	; 18
    10f4:	9c 93       	st	X, r25
    10f6:	52 97       	sbiw	r26, 0x12	; 18
    10f8:	82 95       	swap	r24
    10fa:	8f 70       	andi	r24, 0x0F	; 15
    10fc:	51 96       	adiw	r26, 0x11	; 17
    10fe:	8c 93       	st	X, r24
    1100:	51 97       	sbiw	r26, 0x11	; 17
    1102:	f9 01       	movw	r30, r18
    1104:	24 91       	lpm	r18, Z
    1106:	82 2f       	mov	r24, r18
    1108:	8f 70       	andi	r24, 0x0F	; 15
    110a:	54 96       	adiw	r26, 0x14	; 20
    110c:	8c 93       	st	X, r24
    110e:	54 97       	sbiw	r26, 0x14	; 20
    1110:	22 95       	swap	r18
    1112:	2f 70       	andi	r18, 0x0F	; 15
    1114:	53 96       	adiw	r26, 0x13	; 19
    1116:	2c 93       	st	X, r18
    1118:	53 97       	sbiw	r26, 0x13	; 19
    111a:	fe 01       	movw	r30, r28
    111c:	32 96       	adiw	r30, 0x02	; 2
    111e:	e4 91       	lpm	r30, Z
    1120:	e2 95       	swap	r30
    1122:	ef 70       	andi	r30, 0x0F	; 15
    1124:	50 96       	adiw	r26, 0x10	; 16
    1126:	ec 93       	st	X, r30
    1128:	ce 01       	movw	r24, r28
    112a:	0e c0       	rjmp	.+28     	; 0x1148 <u8g_GetGlyph+0x184>
    112c:	fe 01       	movw	r30, r28
    112e:	32 96       	adiw	r30, 0x02	; 2
    1130:	e4 91       	lpm	r30, Z
    1132:	eb 21       	and	r30, r11
    1134:	9c 01       	movw	r18, r24
    1136:	2e 0f       	add	r18, r30
    1138:	31 1d       	adc	r19, r1
    113a:	c2 0f       	add	r28, r18
    113c:	d3 1f       	adc	r29, r19
    113e:	fd 14       	cp	r15, r13
    1140:	09 f4       	brne	.+2      	; 0x1144 <u8g_GetGlyph+0x180>
    1142:	8a cf       	rjmp	.-236    	; 0x1058 <u8g_GetGlyph+0x94>
    1144:	f3 94       	inc	r15
    1146:	9e cf       	rjmp	.-196    	; 0x1084 <u8g_GetGlyph+0xc0>
    1148:	cd b7       	in	r28, 0x3d	; 61
    114a:	de b7       	in	r29, 0x3e	; 62
    114c:	e9 e0       	ldi	r30, 0x09	; 9
    114e:	0c 94 67 12 	jmp	0x24ce	; 0x24ce <__epilogue_restores__+0x12>

00001152 <u8g_draw_glyph>:
    1152:	4f 92       	push	r4
    1154:	5f 92       	push	r5
    1156:	6f 92       	push	r6
    1158:	7f 92       	push	r7
    115a:	9f 92       	push	r9
    115c:	af 92       	push	r10
    115e:	bf 92       	push	r11
    1160:	cf 92       	push	r12
    1162:	df 92       	push	r13
    1164:	ef 92       	push	r14
    1166:	ff 92       	push	r15
    1168:	0f 93       	push	r16
    116a:	1f 93       	push	r17
    116c:	cf 93       	push	r28
    116e:	df 93       	push	r29
    1170:	1f 92       	push	r1
    1172:	cd b7       	in	r28, 0x3d	; 61
    1174:	de b7       	in	r29, 0x3e	; 62
    1176:	2c 01       	movw	r4, r24
    1178:	c6 2e       	mov	r12, r22
    117a:	94 2e       	mov	r9, r20
    117c:	62 2f       	mov	r22, r18
    117e:	22 df       	rcall	.-444    	; 0xfc4 <u8g_GetGlyph>
    1180:	7c 01       	movw	r14, r24
    1182:	89 2b       	or	r24, r25
    1184:	09 f4       	brne	.+2      	; 0x1188 <u8g_draw_glyph+0x36>
    1186:	3a c0       	rjmp	.+116    	; 0x11fc <u8g_draw_glyph+0xaa>
    1188:	f2 01       	movw	r30, r4
    118a:	84 81       	ldd	r24, Z+4	; 0x04
    118c:	95 81       	ldd	r25, Z+5	; 0x05
    118e:	03 df       	rcall	.-506    	; 0xf96 <u8g_font_GetFontGlyphStructureSize>
    1190:	b8 2e       	mov	r11, r24
    1192:	f2 01       	movw	r30, r4
    1194:	13 89       	ldd	r17, Z+19	; 0x13
    1196:	04 89       	ldd	r16, Z+20	; 0x14
    1198:	81 89       	ldd	r24, Z+17	; 0x11
    119a:	c8 0e       	add	r12, r24
    119c:	82 89       	ldd	r24, Z+18	; 0x12
    119e:	98 1a       	sub	r9, r24
    11a0:	d9 2c       	mov	r13, r9
    11a2:	d0 1a       	sub	r13, r16
    11a4:	21 2f       	mov	r18, r17
    11a6:	4d 2d       	mov	r20, r13
    11a8:	6c 2d       	mov	r22, r12
    11aa:	c2 01       	movw	r24, r4
    11ac:	d3 dd       	rcall	.-1114   	; 0xd54 <u8g_IsBBXIntersection>
    11ae:	88 23       	and	r24, r24
    11b0:	11 f1       	breq	.+68     	; 0x11f6 <u8g_draw_glyph+0xa4>
    11b2:	eb 0c       	add	r14, r11
    11b4:	f1 1c       	adc	r15, r1
    11b6:	19 5f       	subi	r17, 0xF9	; 249
    11b8:	16 95       	lsr	r17
    11ba:	16 95       	lsr	r17
    11bc:	16 95       	lsr	r17
    11be:	61 2e       	mov	r6, r17
    11c0:	71 2c       	mov	r7, r1
    11c2:	d9 14       	cp	r13, r9
    11c4:	c1 f0       	breq	.+48     	; 0x11f6 <u8g_draw_glyph+0xa4>
    11c6:	3c 2d       	mov	r19, r12
    11c8:	57 01       	movw	r10, r14
    11ca:	8a 2d       	mov	r24, r10
    11cc:	8e 19       	sub	r24, r14
    11ce:	81 17       	cp	r24, r17
    11d0:	70 f4       	brcc	.+28     	; 0x11ee <u8g_draw_glyph+0x9c>
    11d2:	f5 01       	movw	r30, r10
    11d4:	04 91       	lpm	r16, Z
    11d6:	20 e0       	ldi	r18, 0x00	; 0
    11d8:	4d 2d       	mov	r20, r13
    11da:	63 2f       	mov	r22, r19
    11dc:	c2 01       	movw	r24, r4
    11de:	39 83       	std	Y+1, r19	; 0x01
    11e0:	61 d2       	rcall	.+1218   	; 0x16a4 <u8g_Draw8Pixel>
    11e2:	ff ef       	ldi	r31, 0xFF	; 255
    11e4:	af 1a       	sub	r10, r31
    11e6:	bf 0a       	sbc	r11, r31
    11e8:	39 81       	ldd	r19, Y+1	; 0x01
    11ea:	38 5f       	subi	r19, 0xF8	; 248
    11ec:	ee cf       	rjmp	.-36     	; 0x11ca <u8g_draw_glyph+0x78>
    11ee:	e6 0c       	add	r14, r6
    11f0:	f7 1c       	adc	r15, r7
    11f2:	d3 94       	inc	r13
    11f4:	e6 cf       	rjmp	.-52     	; 0x11c2 <u8g_draw_glyph+0x70>
    11f6:	f2 01       	movw	r30, r4
    11f8:	80 89       	ldd	r24, Z+16	; 0x10
    11fa:	01 c0       	rjmp	.+2      	; 0x11fe <u8g_draw_glyph+0xac>
    11fc:	80 e0       	ldi	r24, 0x00	; 0
    11fe:	0f 90       	pop	r0
    1200:	df 91       	pop	r29
    1202:	cf 91       	pop	r28
    1204:	1f 91       	pop	r17
    1206:	0f 91       	pop	r16
    1208:	ff 90       	pop	r15
    120a:	ef 90       	pop	r14
    120c:	df 90       	pop	r13
    120e:	cf 90       	pop	r12
    1210:	bf 90       	pop	r11
    1212:	af 90       	pop	r10
    1214:	9f 90       	pop	r9
    1216:	7f 90       	pop	r7
    1218:	6f 90       	pop	r6
    121a:	5f 90       	pop	r5
    121c:	4f 90       	pop	r4
    121e:	08 95       	ret

00001220 <u8g_DrawStr>:
    1220:	af 92       	push	r10
    1222:	bf 92       	push	r11
    1224:	df 92       	push	r13
    1226:	ef 92       	push	r14
    1228:	ff 92       	push	r15
    122a:	0f 93       	push	r16
    122c:	1f 93       	push	r17
    122e:	cf 93       	push	r28
    1230:	df 93       	push	r29
    1232:	00 d0       	rcall	.+0      	; 0x1234 <u8g_DrawStr+0x14>
    1234:	cd b7       	in	r28, 0x3d	; 61
    1236:	de b7       	in	r29, 0x3e	; 62
    1238:	7c 01       	movw	r14, r24
    123a:	d6 2e       	mov	r13, r22
    123c:	04 2f       	mov	r16, r20
    123e:	dc 01       	movw	r26, r24
    1240:	55 96       	adiw	r26, 0x15	; 21
    1242:	ed 91       	ld	r30, X+
    1244:	fc 91       	ld	r31, X
    1246:	56 97       	sbiw	r26, 0x16	; 22
    1248:	29 83       	std	Y+1, r18	; 0x01
    124a:	3a 83       	std	Y+2, r19	; 0x02
    124c:	09 95       	icall
    124e:	08 0f       	add	r16, r24
    1250:	29 81       	ldd	r18, Y+1	; 0x01
    1252:	a2 2e       	mov	r10, r18
    1254:	3a 81       	ldd	r19, Y+2	; 0x02
    1256:	b3 2e       	mov	r11, r19
    1258:	10 e0       	ldi	r17, 0x00	; 0
    125a:	f5 01       	movw	r30, r10
    125c:	21 91       	ld	r18, Z+
    125e:	5f 01       	movw	r10, r30
    1260:	22 23       	and	r18, r18
    1262:	39 f0       	breq	.+14     	; 0x1272 <u8g_DrawStr+0x52>
    1264:	40 2f       	mov	r20, r16
    1266:	6d 2d       	mov	r22, r13
    1268:	c7 01       	movw	r24, r14
    126a:	73 df       	rcall	.-282    	; 0x1152 <u8g_draw_glyph>
    126c:	d8 0e       	add	r13, r24
    126e:	18 0f       	add	r17, r24
    1270:	f4 cf       	rjmp	.-24     	; 0x125a <u8g_DrawStr+0x3a>
    1272:	81 2f       	mov	r24, r17
    1274:	0f 90       	pop	r0
    1276:	0f 90       	pop	r0
    1278:	df 91       	pop	r29
    127a:	cf 91       	pop	r28
    127c:	1f 91       	pop	r17
    127e:	0f 91       	pop	r16
    1280:	ff 90       	pop	r15
    1282:	ef 90       	pop	r14
    1284:	df 90       	pop	r13
    1286:	bf 90       	pop	r11
    1288:	af 90       	pop	r10
    128a:	08 95       	ret

0000128c <u8g_UpdateRefHeight>:
    128c:	dc 01       	movw	r26, r24
    128e:	14 96       	adiw	r26, 0x04	; 4
    1290:	2d 91       	ld	r18, X+
    1292:	3c 91       	ld	r19, X
    1294:	15 97       	sbiw	r26, 0x05	; 5
    1296:	21 15       	cp	r18, r1
    1298:	31 05       	cpc	r19, r1
    129a:	09 f4       	brne	.+2      	; 0x129e <u8g_UpdateRefHeight+0x12>
    129c:	3f c0       	rjmp	.+126    	; 0x131c <u8g_UpdateRefHeight+0x90>
    129e:	57 96       	adiw	r26, 0x17	; 23
    12a0:	8c 91       	ld	r24, X
    12a2:	57 97       	sbiw	r26, 0x17	; 23
    12a4:	f9 01       	movw	r30, r18
    12a6:	81 11       	cpse	r24, r1
    12a8:	08 c0       	rjmp	.+16     	; 0x12ba <u8g_UpdateRefHeight+0x2e>
    12aa:	35 96       	adiw	r30, 0x05	; 5
    12ac:	e4 91       	lpm	r30, Z
    12ae:	58 96       	adiw	r26, 0x18	; 24
    12b0:	ec 93       	st	X, r30
    12b2:	58 97       	sbiw	r26, 0x18	; 24
    12b4:	f9 01       	movw	r30, r18
    12b6:	3c 96       	adiw	r30, 0x0c	; 12
    12b8:	11 c0       	rjmp	.+34     	; 0x12dc <u8g_UpdateRefHeight+0x50>
    12ba:	81 30       	cpi	r24, 0x01	; 1
    12bc:	41 f4       	brne	.+16     	; 0x12ce <u8g_UpdateRefHeight+0x42>
    12be:	3f 96       	adiw	r30, 0x0f	; 15
    12c0:	e4 91       	lpm	r30, Z
    12c2:	58 96       	adiw	r26, 0x18	; 24
    12c4:	ec 93       	st	X, r30
    12c6:	58 97       	sbiw	r26, 0x18	; 24
    12c8:	f9 01       	movw	r30, r18
    12ca:	70 96       	adiw	r30, 0x10	; 16
    12cc:	07 c0       	rjmp	.+14     	; 0x12dc <u8g_UpdateRefHeight+0x50>
    12ce:	3d 96       	adiw	r30, 0x0d	; 13
    12d0:	e4 91       	lpm	r30, Z
    12d2:	58 96       	adiw	r26, 0x18	; 24
    12d4:	ec 93       	st	X, r30
    12d6:	58 97       	sbiw	r26, 0x18	; 24
    12d8:	f9 01       	movw	r30, r18
    12da:	3e 96       	adiw	r30, 0x0e	; 14
    12dc:	e4 91       	lpm	r30, Z
    12de:	59 96       	adiw	r26, 0x19	; 25
    12e0:	ec 93       	st	X, r30
    12e2:	59 97       	sbiw	r26, 0x19	; 25
    12e4:	58 96       	adiw	r26, 0x18	; 24
    12e6:	8c 91       	ld	r24, X
    12e8:	58 97       	sbiw	r26, 0x18	; 24
    12ea:	08 2e       	mov	r0, r24
    12ec:	00 0c       	add	r0, r0
    12ee:	99 0b       	sbc	r25, r25
    12f0:	59 96       	adiw	r26, 0x19	; 25
    12f2:	2c 91       	ld	r18, X
    12f4:	59 97       	sbiw	r26, 0x19	; 25
    12f6:	82 1b       	sub	r24, r18
    12f8:	91 09       	sbc	r25, r1
    12fa:	27 fd       	sbrc	r18, 7
    12fc:	93 95       	inc	r25
    12fe:	5a 96       	adiw	r26, 0x1a	; 26
    1300:	2c 91       	ld	r18, X
    1302:	5a 97       	sbiw	r26, 0x1a	; 26
    1304:	20 34       	cpi	r18, 0x40	; 64
    1306:	41 f0       	breq	.+16     	; 0x1318 <u8g_UpdateRefHeight+0x8c>
    1308:	82 9f       	mul	r24, r18
    130a:	c0 01       	movw	r24, r0
    130c:	11 24       	eor	r1, r1
    130e:	26 e0       	ldi	r18, 0x06	; 6
    1310:	96 95       	lsr	r25
    1312:	87 95       	ror	r24
    1314:	2a 95       	dec	r18
    1316:	e1 f7       	brne	.-8      	; 0x1310 <u8g_UpdateRefHeight+0x84>
    1318:	5b 96       	adiw	r26, 0x1b	; 27
    131a:	8c 93       	st	X, r24
    131c:	08 95       	ret

0000131e <u8g_SetFontPosBaseline>:
    131e:	24 ed       	ldi	r18, 0xD4	; 212
    1320:	37 e0       	ldi	r19, 0x07	; 7
    1322:	fc 01       	movw	r30, r24
    1324:	36 8b       	std	Z+22, r19	; 0x16
    1326:	25 8b       	std	Z+21, r18	; 0x15
    1328:	08 95       	ret

0000132a <u8g_SetFont>:
    132a:	cf 93       	push	r28
    132c:	df 93       	push	r29
    132e:	fc 01       	movw	r30, r24
    1330:	24 81       	ldd	r18, Z+4	; 0x04
    1332:	35 81       	ldd	r19, Z+5	; 0x05
    1334:	26 17       	cp	r18, r22
    1336:	37 07       	cpc	r19, r23
    1338:	41 f0       	breq	.+16     	; 0x134a <u8g_SetFont+0x20>
    133a:	ec 01       	movw	r28, r24
    133c:	75 83       	std	Z+5, r23	; 0x05
    133e:	64 83       	std	Z+4, r22	; 0x04
    1340:	a5 df       	rcall	.-182    	; 0x128c <u8g_UpdateRefHeight>
    1342:	84 ed       	ldi	r24, 0xD4	; 212
    1344:	97 e0       	ldi	r25, 0x07	; 7
    1346:	9e 8b       	std	Y+22, r25	; 0x16
    1348:	8d 8b       	std	Y+21, r24	; 0x15
    134a:	df 91       	pop	r29
    134c:	cf 91       	pop	r28
    134e:	08 95       	ret

00001350 <u8g_DrawLine>:
    1350:	a0 e0       	ldi	r26, 0x00	; 0
    1352:	b0 e0       	ldi	r27, 0x00	; 0
    1354:	ee ea       	ldi	r30, 0xAE	; 174
    1356:	f9 e0       	ldi	r31, 0x09	; 9
    1358:	0c 94 4a 12 	jmp	0x2494	; 0x2494 <__prologue_saves__+0x10>
    135c:	5c 01       	movw	r10, r24
    135e:	c6 2f       	mov	r28, r22
    1360:	14 2f       	mov	r17, r20
    1362:	d2 2f       	mov	r29, r18
    1364:	26 17       	cp	r18, r22
    1366:	18 f4       	brcc	.+6      	; 0x136e <u8g_DrawLine+0x1e>
    1368:	f6 2e       	mov	r15, r22
    136a:	f2 1a       	sub	r15, r18
    136c:	02 c0       	rjmp	.+4      	; 0x1372 <u8g_DrawLine+0x22>
    136e:	f2 2e       	mov	r15, r18
    1370:	f6 1a       	sub	r15, r22
    1372:	01 17       	cp	r16, r17
    1374:	70 f4       	brcc	.+28     	; 0x1392 <u8g_DrawLine+0x42>
    1376:	e1 2e       	mov	r14, r17
    1378:	e0 1a       	sub	r14, r16
    137a:	fe 14       	cp	r15, r14
    137c:	f0 f4       	brcc	.+60     	; 0x13ba <u8g_DrawLine+0x6a>
    137e:	8f 2d       	mov	r24, r15
    1380:	fe 2c       	mov	r15, r14
    1382:	e8 2e       	mov	r14, r24
    1384:	81 2f       	mov	r24, r17
    1386:	1d 2f       	mov	r17, r29
    1388:	d8 2f       	mov	r29, r24
    138a:	8c 2f       	mov	r24, r28
    138c:	c0 2f       	mov	r28, r16
    138e:	08 2f       	mov	r16, r24
    1390:	0d c0       	rjmp	.+26     	; 0x13ac <u8g_DrawLine+0x5c>
    1392:	e0 2e       	mov	r14, r16
    1394:	e1 1a       	sub	r14, r17
    1396:	fe 14       	cp	r15, r14
    1398:	80 f5       	brcc	.+96     	; 0x13fa <u8g_DrawLine+0xaa>
    139a:	8f 2d       	mov	r24, r15
    139c:	fe 2c       	mov	r15, r14
    139e:	e8 2e       	mov	r14, r24
    13a0:	8d 2f       	mov	r24, r29
    13a2:	d0 2f       	mov	r29, r16
    13a4:	08 2f       	mov	r16, r24
    13a6:	8c 2f       	mov	r24, r28
    13a8:	c1 2f       	mov	r28, r17
    13aa:	18 2f       	mov	r17, r24
    13ac:	cc 24       	eor	r12, r12
    13ae:	c3 94       	inc	r12
    13b0:	df 2c       	mov	r13, r15
    13b2:	d6 94       	lsr	r13
    13b4:	10 17       	cp	r17, r16
    13b6:	50 f0       	brcs	.+20     	; 0x13cc <u8g_DrawLine+0x7c>
    13b8:	29 c0       	rjmp	.+82     	; 0x140c <u8g_DrawLine+0xbc>
    13ba:	dc 17       	cp	r29, r28
    13bc:	48 f5       	brcc	.+82     	; 0x1410 <u8g_DrawLine+0xc0>
    13be:	df 2c       	mov	r13, r15
    13c0:	d6 94       	lsr	r13
    13c2:	10 2f       	mov	r17, r16
    13c4:	8c 2f       	mov	r24, r28
    13c6:	cd 2f       	mov	r28, r29
    13c8:	d8 2f       	mov	r29, r24
    13ca:	c1 2c       	mov	r12, r1
    13cc:	01 e0       	ldi	r16, 0x01	; 1
    13ce:	df 3f       	cpi	r29, 0xFF	; 255
    13d0:	71 f4       	brne	.+28     	; 0x13ee <u8g_DrawLine+0x9e>
    13d2:	de ef       	ldi	r29, 0xFE	; 254
    13d4:	0c c0       	rjmp	.+24     	; 0x13ee <u8g_DrawLine+0x9e>
    13d6:	c1 10       	cpse	r12, r1
    13d8:	0d c0       	rjmp	.+26     	; 0x13f4 <u8g_DrawLine+0xa4>
    13da:	41 2f       	mov	r20, r17
    13dc:	6c 2f       	mov	r22, r28
    13de:	c5 01       	movw	r24, r10
    13e0:	5a d1       	rcall	.+692    	; 0x1696 <u8g_DrawPixel>
    13e2:	de 18       	sub	r13, r14
    13e4:	d7 fe       	sbrs	r13, 7
    13e6:	02 c0       	rjmp	.+4      	; 0x13ec <u8g_DrawLine+0x9c>
    13e8:	10 0f       	add	r17, r16
    13ea:	df 0c       	add	r13, r15
    13ec:	cf 5f       	subi	r28, 0xFF	; 255
    13ee:	dc 17       	cp	r29, r28
    13f0:	90 f7       	brcc	.-28     	; 0x13d6 <u8g_DrawLine+0x86>
    13f2:	10 c0       	rjmp	.+32     	; 0x1414 <u8g_DrawLine+0xc4>
    13f4:	4c 2f       	mov	r20, r28
    13f6:	61 2f       	mov	r22, r17
    13f8:	f2 cf       	rjmp	.-28     	; 0x13de <u8g_DrawLine+0x8e>
    13fa:	dc 17       	cp	r29, r28
    13fc:	48 f4       	brcc	.+18     	; 0x1410 <u8g_DrawLine+0xc0>
    13fe:	df 2c       	mov	r13, r15
    1400:	d6 94       	lsr	r13
    1402:	10 2f       	mov	r17, r16
    1404:	8c 2f       	mov	r24, r28
    1406:	cd 2f       	mov	r28, r29
    1408:	d8 2f       	mov	r29, r24
    140a:	c1 2c       	mov	r12, r1
    140c:	0f ef       	ldi	r16, 0xFF	; 255
    140e:	df cf       	rjmp	.-66     	; 0x13ce <u8g_DrawLine+0x7e>
    1410:	c1 2c       	mov	r12, r1
    1412:	ce cf       	rjmp	.-100    	; 0x13b0 <u8g_DrawLine+0x60>
    1414:	cd b7       	in	r28, 0x3d	; 61
    1416:	de b7       	in	r29, 0x3e	; 62
    1418:	ea e0       	ldi	r30, 0x0A	; 10
    141a:	0c 94 66 12 	jmp	0x24cc	; 0x24cc <__epilogue_restores__+0x10>

0000141e <u8g_init_data>:
    141e:	1f 93       	push	r17
    1420:	cf 93       	push	r28
    1422:	df 93       	push	r29
    1424:	ec 01       	movw	r28, r24
    1426:	1d 82       	std	Y+5, r1	; 0x05
    1428:	1c 82       	std	Y+4, r1	; 0x04
    142a:	1f 82       	std	Y+7, r1	; 0x07
    142c:	1e 82       	std	Y+6, r1	; 0x06
    142e:	19 86       	std	Y+9, r1	; 0x09
    1430:	81 e0       	ldi	r24, 0x01	; 1
    1432:	88 87       	std	Y+8, r24	; 0x08
    1434:	82 e2       	ldi	r24, 0x22	; 34
    1436:	8a 87       	std	Y+10, r24	; 0x0a
    1438:	1f 86       	std	Y+15, r1	; 0x0f
    143a:	1e 86       	std	Y+14, r1	; 0x0e
    143c:	fe 01       	movw	r30, r28
    143e:	b3 96       	adiw	r30, 0x23	; 35
    1440:	ce 01       	movw	r24, r28
    1442:	c1 96       	adiw	r24, 0x31	; 49
    1444:	2f ef       	ldi	r18, 0xFF	; 255
    1446:	21 93       	st	Z+, r18
    1448:	e8 17       	cp	r30, r24
    144a:	f9 07       	cpc	r31, r25
    144c:	e1 f7       	brne	.-8      	; 0x1446 <u8g_init_data+0x28>
    144e:	11 e0       	ldi	r17, 0x01	; 1
    1450:	18 a3       	std	Y+32, r17	; 0x20
    1452:	ce 01       	movw	r24, r28
    1454:	64 df       	rcall	.-312    	; 0x131e <u8g_SetFontPosBaseline>
    1456:	1f 8b       	std	Y+23, r17	; 0x17
    1458:	18 8e       	std	Y+24, r1	; 0x18
    145a:	19 8e       	std	Y+25, r1	; 0x19
    145c:	80 e4       	ldi	r24, 0x40	; 64
    145e:	8a 8f       	std	Y+26, r24	; 0x1a
    1460:	1b 8e       	std	Y+27, r1	; 0x1b
    1462:	87 e3       	ldi	r24, 0x37	; 55
    1464:	9e e0       	ldi	r25, 0x0E	; 14
    1466:	9a ab       	std	Y+50, r25	; 0x32
    1468:	89 ab       	std	Y+49, r24	; 0x31
    146a:	df 91       	pop	r29
    146c:	cf 91       	pop	r28
    146e:	1f 91       	pop	r17
    1470:	08 95       	ret

00001472 <u8g_call_dev_fn>:
    1472:	db 01       	movw	r26, r22
    1474:	ed 91       	ld	r30, X+
    1476:	fc 91       	ld	r31, X
    1478:	09 95       	icall
    147a:	08 95       	ret

0000147c <u8g_InitLL>:
    147c:	ef 92       	push	r14
    147e:	ff 92       	push	r15
    1480:	1f 93       	push	r17
    1482:	cf 93       	push	r28
    1484:	df 93       	push	r29
    1486:	00 d0       	rcall	.+0      	; 0x1488 <u8g_InitLL+0xc>
    1488:	cd b7       	in	r28, 0x3d	; 61
    148a:	de b7       	in	r29, 0x3e	; 62
    148c:	7c 01       	movw	r14, r24
    148e:	dc 01       	movw	r26, r24
    1490:	d1 96       	adiw	r26, 0x31	; 49
    1492:	ed 91       	ld	r30, X+
    1494:	fc 91       	ld	r31, X
    1496:	d2 97       	sbiw	r26, 0x32	; 50
    1498:	82 e0       	ldi	r24, 0x02	; 2
    149a:	69 83       	std	Y+1, r22	; 0x01
    149c:	7a 83       	std	Y+2, r23	; 0x02
    149e:	09 95       	icall
    14a0:	20 e0       	ldi	r18, 0x00	; 0
    14a2:	30 e0       	ldi	r19, 0x00	; 0
    14a4:	4a e0       	ldi	r20, 0x0A	; 10
    14a6:	69 81       	ldd	r22, Y+1	; 0x01
    14a8:	7a 81       	ldd	r23, Y+2	; 0x02
    14aa:	c7 01       	movw	r24, r14
    14ac:	e2 df       	rcall	.-60     	; 0x1472 <u8g_call_dev_fn>
    14ae:	18 2f       	mov	r17, r24
    14b0:	d7 01       	movw	r26, r14
    14b2:	d1 96       	adiw	r26, 0x31	; 49
    14b4:	ed 91       	ld	r30, X+
    14b6:	fc 91       	ld	r31, X
    14b8:	d2 97       	sbiw	r26, 0x32	; 50
    14ba:	83 e0       	ldi	r24, 0x03	; 3
    14bc:	09 95       	icall
    14be:	d7 01       	movw	r26, r14
    14c0:	d1 96       	adiw	r26, 0x31	; 49
    14c2:	ed 91       	ld	r30, X+
    14c4:	fc 91       	ld	r31, X
    14c6:	d2 97       	sbiw	r26, 0x32	; 50
    14c8:	80 e0       	ldi	r24, 0x00	; 0
    14ca:	09 95       	icall
    14cc:	81 2f       	mov	r24, r17
    14ce:	0f 90       	pop	r0
    14d0:	0f 90       	pop	r0
    14d2:	df 91       	pop	r29
    14d4:	cf 91       	pop	r28
    14d6:	1f 91       	pop	r17
    14d8:	ff 90       	pop	r15
    14da:	ef 90       	pop	r14
    14dc:	08 95       	ret

000014de <u8g_FirstPageLL>:
    14de:	0f 93       	push	r16
    14e0:	1f 93       	push	r17
    14e2:	cf 93       	push	r28
    14e4:	df 93       	push	r29
    14e6:	ec 01       	movw	r28, r24
    14e8:	8b 01       	movw	r16, r22
    14ea:	e9 a9       	ldd	r30, Y+49	; 0x31
    14ec:	fa a9       	ldd	r31, Y+50	; 0x32
    14ee:	82 e0       	ldi	r24, 0x02	; 2
    14f0:	09 95       	icall
    14f2:	e9 a9       	ldd	r30, Y+49	; 0x31
    14f4:	fa a9       	ldd	r31, Y+50	; 0x32
    14f6:	81 e0       	ldi	r24, 0x01	; 1
    14f8:	09 95       	icall
    14fa:	20 e0       	ldi	r18, 0x00	; 0
    14fc:	30 e0       	ldi	r19, 0x00	; 0
    14fe:	44 e1       	ldi	r20, 0x14	; 20
    1500:	b8 01       	movw	r22, r16
    1502:	ce 01       	movw	r24, r28
    1504:	b6 df       	rcall	.-148    	; 0x1472 <u8g_call_dev_fn>
    1506:	9e 01       	movw	r18, r28
    1508:	2d 5c       	subi	r18, 0xCD	; 205
    150a:	3f 4f       	sbci	r19, 0xFF	; 255
    150c:	47 e1       	ldi	r20, 0x17	; 23
    150e:	b8 01       	movw	r22, r16
    1510:	ce 01       	movw	r24, r28
    1512:	af df       	rcall	.-162    	; 0x1472 <u8g_call_dev_fn>
    1514:	e9 a9       	ldd	r30, Y+49	; 0x31
    1516:	fa a9       	ldd	r31, Y+50	; 0x32
    1518:	80 e0       	ldi	r24, 0x00	; 0
    151a:	09 95       	icall
    151c:	df 91       	pop	r29
    151e:	cf 91       	pop	r28
    1520:	1f 91       	pop	r17
    1522:	0f 91       	pop	r16
    1524:	08 95       	ret

00001526 <u8g_NextPageLL>:
    1526:	ef 92       	push	r14
    1528:	ff 92       	push	r15
    152a:	1f 93       	push	r17
    152c:	cf 93       	push	r28
    152e:	df 93       	push	r29
    1530:	ec 01       	movw	r28, r24
    1532:	7b 01       	movw	r14, r22
    1534:	e9 a9       	ldd	r30, Y+49	; 0x31
    1536:	fa a9       	ldd	r31, Y+50	; 0x32
    1538:	82 e0       	ldi	r24, 0x02	; 2
    153a:	09 95       	icall
    153c:	e9 a9       	ldd	r30, Y+49	; 0x31
    153e:	fa a9       	ldd	r31, Y+50	; 0x32
    1540:	81 e0       	ldi	r24, 0x01	; 1
    1542:	09 95       	icall
    1544:	20 e0       	ldi	r18, 0x00	; 0
    1546:	30 e0       	ldi	r19, 0x00	; 0
    1548:	45 e1       	ldi	r20, 0x15	; 21
    154a:	b7 01       	movw	r22, r14
    154c:	ce 01       	movw	r24, r28
    154e:	91 df       	rcall	.-222    	; 0x1472 <u8g_call_dev_fn>
    1550:	18 2f       	mov	r17, r24
    1552:	88 23       	and	r24, r24
    1554:	39 f0       	breq	.+14     	; 0x1564 <u8g_NextPageLL+0x3e>
    1556:	9e 01       	movw	r18, r28
    1558:	2d 5c       	subi	r18, 0xCD	; 205
    155a:	3f 4f       	sbci	r19, 0xFF	; 255
    155c:	47 e1       	ldi	r20, 0x17	; 23
    155e:	b7 01       	movw	r22, r14
    1560:	ce 01       	movw	r24, r28
    1562:	87 df       	rcall	.-242    	; 0x1472 <u8g_call_dev_fn>
    1564:	e9 a9       	ldd	r30, Y+49	; 0x31
    1566:	fa a9       	ldd	r31, Y+50	; 0x32
    1568:	80 e0       	ldi	r24, 0x00	; 0
    156a:	09 95       	icall
    156c:	81 2f       	mov	r24, r17
    156e:	df 91       	pop	r29
    1570:	cf 91       	pop	r28
    1572:	1f 91       	pop	r17
    1574:	ff 90       	pop	r15
    1576:	ef 90       	pop	r14
    1578:	08 95       	ret

0000157a <u8g_DrawPixelLL>:
    157a:	fc 01       	movw	r30, r24
    157c:	44 8f       	std	Z+28, r20	; 0x1c
    157e:	25 8f       	std	Z+29, r18	; 0x1d
    1580:	9c 01       	movw	r18, r24
    1582:	24 5e       	subi	r18, 0xE4	; 228
    1584:	3f 4f       	sbci	r19, 0xFF	; 255
    1586:	42 e3       	ldi	r20, 0x32	; 50
    1588:	74 cf       	rjmp	.-280    	; 0x1472 <u8g_call_dev_fn>

0000158a <u8g_GetWidthLL>:
    158a:	a1 e0       	ldi	r26, 0x01	; 1
    158c:	b0 e0       	ldi	r27, 0x00	; 0
    158e:	ea ec       	ldi	r30, 0xCA	; 202
    1590:	fa e0       	ldi	r31, 0x0A	; 10
    1592:	88 c7       	rjmp	.+3856   	; 0x24a4 <__prologue_saves__+0x20>
    1594:	9e 01       	movw	r18, r28
    1596:	2f 5f       	subi	r18, 0xFF	; 255
    1598:	3f 4f       	sbci	r19, 0xFF	; 255
    159a:	46 e4       	ldi	r20, 0x46	; 70
    159c:	6a df       	rcall	.-300    	; 0x1472 <u8g_call_dev_fn>
    159e:	89 81       	ldd	r24, Y+1	; 0x01
    15a0:	21 96       	adiw	r28, 0x01	; 1
    15a2:	e2 e0       	ldi	r30, 0x02	; 2
    15a4:	9b c7       	rjmp	.+3894   	; 0x24dc <__epilogue_restores__+0x20>

000015a6 <u8g_GetHeightLL>:
    15a6:	a1 e0       	ldi	r26, 0x01	; 1
    15a8:	b0 e0       	ldi	r27, 0x00	; 0
    15aa:	e8 ed       	ldi	r30, 0xD8	; 216
    15ac:	fa e0       	ldi	r31, 0x0A	; 10
    15ae:	7a c7       	rjmp	.+3828   	; 0x24a4 <__prologue_saves__+0x20>
    15b0:	9e 01       	movw	r18, r28
    15b2:	2f 5f       	subi	r18, 0xFF	; 255
    15b4:	3f 4f       	sbci	r19, 0xFF	; 255
    15b6:	47 e4       	ldi	r20, 0x47	; 71
    15b8:	5c df       	rcall	.-328    	; 0x1472 <u8g_call_dev_fn>
    15ba:	89 81       	ldd	r24, Y+1	; 0x01
    15bc:	21 96       	adiw	r28, 0x01	; 1
    15be:	e2 e0       	ldi	r30, 0x02	; 2
    15c0:	8d c7       	rjmp	.+3866   	; 0x24dc <__epilogue_restores__+0x20>

000015c2 <u8g_GetModeLL>:
    15c2:	20 e0       	ldi	r18, 0x00	; 0
    15c4:	30 e0       	ldi	r19, 0x00	; 0
    15c6:	48 e4       	ldi	r20, 0x48	; 72
    15c8:	54 cf       	rjmp	.-344    	; 0x1472 <u8g_call_dev_fn>

000015ca <u8g_UpdateDimension>:
    15ca:	cf 93       	push	r28
    15cc:	df 93       	push	r29
    15ce:	ec 01       	movw	r28, r24
    15d0:	6a 81       	ldd	r22, Y+2	; 0x02
    15d2:	7b 81       	ldd	r23, Y+3	; 0x03
    15d4:	da df       	rcall	.-76     	; 0x158a <u8g_GetWidthLL>
    15d6:	88 83       	st	Y, r24
    15d8:	6a 81       	ldd	r22, Y+2	; 0x02
    15da:	7b 81       	ldd	r23, Y+3	; 0x03
    15dc:	ce 01       	movw	r24, r28
    15de:	e3 df       	rcall	.-58     	; 0x15a6 <u8g_GetHeightLL>
    15e0:	89 83       	std	Y+1, r24	; 0x01
    15e2:	6a 81       	ldd	r22, Y+2	; 0x02
    15e4:	7b 81       	ldd	r23, Y+3	; 0x03
    15e6:	ce 01       	movw	r24, r28
    15e8:	ec df       	rcall	.-40     	; 0x15c2 <u8g_GetModeLL>
    15ea:	8b 87       	std	Y+11, r24	; 0x0b
    15ec:	9e 01       	movw	r18, r28
    15ee:	2d 5c       	subi	r18, 0xCD	; 205
    15f0:	3f 4f       	sbci	r19, 0xFF	; 255
    15f2:	6a 81       	ldd	r22, Y+2	; 0x02
    15f4:	7b 81       	ldd	r23, Y+3	; 0x03
    15f6:	47 e1       	ldi	r20, 0x17	; 23
    15f8:	ce 01       	movw	r24, r28
    15fa:	3b df       	rcall	.-394    	; 0x1472 <u8g_call_dev_fn>
    15fc:	df 91       	pop	r29
    15fe:	cf 91       	pop	r28
    1600:	08 95       	ret

00001602 <u8g_Begin>:
    1602:	cf 93       	push	r28
    1604:	df 93       	push	r29
    1606:	ec 01       	movw	r28, r24
    1608:	6a 81       	ldd	r22, Y+2	; 0x02
    160a:	7b 81       	ldd	r23, Y+3	; 0x03
    160c:	37 df       	rcall	.-402    	; 0x147c <u8g_InitLL>
    160e:	88 23       	and	r24, r24
    1610:	19 f0       	breq	.+6      	; 0x1618 <u8g_Begin+0x16>
    1612:	ce 01       	movw	r24, r28
    1614:	da df       	rcall	.-76     	; 0x15ca <u8g_UpdateDimension>
    1616:	81 e0       	ldi	r24, 0x01	; 1
    1618:	df 91       	pop	r29
    161a:	cf 91       	pop	r28
    161c:	08 95       	ret

0000161e <u8g_InitSPI>:
    161e:	8f 92       	push	r8
    1620:	9f 92       	push	r9
    1622:	af 92       	push	r10
    1624:	bf 92       	push	r11
    1626:	cf 92       	push	r12
    1628:	ef 92       	push	r14
    162a:	0f 93       	push	r16
    162c:	cf 93       	push	r28
    162e:	df 93       	push	r29
    1630:	00 d0       	rcall	.+0      	; 0x1632 <u8g_InitSPI+0x14>
    1632:	cd b7       	in	r28, 0x3d	; 61
    1634:	de b7       	in	r29, 0x3e	; 62
    1636:	4c 01       	movw	r8, r24
    1638:	5b 01       	movw	r10, r22
    163a:	2a 83       	std	Y+2, r18	; 0x02
    163c:	49 83       	std	Y+1, r20	; 0x01
    163e:	ef de       	rcall	.-546    	; 0x141e <u8g_init_data>
    1640:	f4 01       	movw	r30, r8
    1642:	b3 82       	std	Z+3, r11	; 0x03
    1644:	a2 82       	std	Z+2, r10	; 0x02
    1646:	49 81       	ldd	r20, Y+1	; 0x01
    1648:	47 a3       	std	Z+39, r20	; 0x27
    164a:	2a 81       	ldd	r18, Y+2	; 0x02
    164c:	20 a7       	std	Z+40, r18	; 0x28
    164e:	05 a3       	std	Z+37, r16	; 0x25
    1650:	e4 a2       	std	Z+36, r14	; 0x24
    1652:	c3 a2       	std	Z+35, r12	; 0x23
    1654:	c4 01       	movw	r24, r8
    1656:	d5 df       	rcall	.-86     	; 0x1602 <u8g_Begin>
    1658:	0f 90       	pop	r0
    165a:	0f 90       	pop	r0
    165c:	df 91       	pop	r29
    165e:	cf 91       	pop	r28
    1660:	0f 91       	pop	r16
    1662:	ef 90       	pop	r14
    1664:	cf 90       	pop	r12
    1666:	bf 90       	pop	r11
    1668:	af 90       	pop	r10
    166a:	9f 90       	pop	r9
    166c:	8f 90       	pop	r8
    166e:	08 95       	ret

00001670 <u8g_FirstPage>:
    1670:	fc 01       	movw	r30, r24
    1672:	62 81       	ldd	r22, Z+2	; 0x02
    1674:	73 81       	ldd	r23, Z+3	; 0x03
    1676:	33 cf       	rjmp	.-410    	; 0x14de <u8g_FirstPageLL>

00001678 <u8g_NextPage>:
    1678:	cf 93       	push	r28
    167a:	df 93       	push	r29
    167c:	ec 01       	movw	r28, r24
    167e:	ee 85       	ldd	r30, Y+14	; 0x0e
    1680:	ff 85       	ldd	r31, Y+15	; 0x0f
    1682:	30 97       	sbiw	r30, 0x00	; 0
    1684:	09 f0       	breq	.+2      	; 0x1688 <u8g_NextPage+0x10>
    1686:	09 95       	icall
    1688:	6a 81       	ldd	r22, Y+2	; 0x02
    168a:	7b 81       	ldd	r23, Y+3	; 0x03
    168c:	ce 01       	movw	r24, r28
    168e:	4b df       	rcall	.-362    	; 0x1526 <u8g_NextPageLL>
    1690:	df 91       	pop	r29
    1692:	cf 91       	pop	r28
    1694:	08 95       	ret

00001696 <u8g_DrawPixel>:
    1696:	36 2f       	mov	r19, r22
    1698:	24 2f       	mov	r18, r20
    169a:	fc 01       	movw	r30, r24
    169c:	62 81       	ldd	r22, Z+2	; 0x02
    169e:	73 81       	ldd	r23, Z+3	; 0x03
    16a0:	43 2f       	mov	r20, r19
    16a2:	6b cf       	rjmp	.-298    	; 0x157a <u8g_DrawPixelLL>

000016a4 <u8g_Draw8Pixel>:
    16a4:	0f 93       	push	r16
    16a6:	fc 01       	movw	r30, r24
    16a8:	82 81       	ldd	r24, Z+2	; 0x02
    16aa:	93 81       	ldd	r25, Z+3	; 0x03
    16ac:	64 8f       	std	Z+28, r22	; 0x1c
    16ae:	45 8f       	std	Z+29, r20	; 0x1d
    16b0:	27 8f       	std	Z+31, r18	; 0x1f
    16b2:	06 8f       	std	Z+30, r16	; 0x1e
    16b4:	9f 01       	movw	r18, r30
    16b6:	24 5e       	subi	r18, 0xE4	; 228
    16b8:	3f 4f       	sbci	r19, 0xFF	; 255
    16ba:	4b e3       	ldi	r20, 0x3B	; 59
    16bc:	bc 01       	movw	r22, r24
    16be:	cf 01       	movw	r24, r30
    16c0:	d8 de       	rcall	.-592    	; 0x1472 <u8g_call_dev_fn>
    16c2:	0f 91       	pop	r16
    16c4:	08 95       	ret

000016c6 <u8g_pb8h1_set_pixel>:
    16c6:	0f 93       	push	r16
    16c8:	1f 93       	push	r17
    16ca:	cf 93       	push	r28
    16cc:	df 93       	push	r29
    16ce:	ec 01       	movw	r28, r24
    16d0:	0e 81       	ldd	r16, Y+6	; 0x06
    16d2:	1f 81       	ldd	r17, Y+7	; 0x07
    16d4:	9d 81       	ldd	r25, Y+5	; 0x05
    16d6:	96 95       	lsr	r25
    16d8:	96 95       	lsr	r25
    16da:	96 95       	lsr	r25
    16dc:	86 2f       	mov	r24, r22
    16de:	87 70       	andi	r24, 0x07	; 7
    16e0:	a0 e8       	ldi	r26, 0x80	; 128
    16e2:	b0 e0       	ldi	r27, 0x00	; 0
    16e4:	02 c0       	rjmp	.+4      	; 0x16ea <u8g_pb8h1_set_pixel+0x24>
    16e6:	b5 95       	asr	r27
    16e8:	a7 95       	ror	r26
    16ea:	8a 95       	dec	r24
    16ec:	e2 f7       	brpl	.-8      	; 0x16e6 <u8g_pb8h1_set_pixel+0x20>
    16ee:	8a 81       	ldd	r24, Y+2	; 0x02
    16f0:	48 1b       	sub	r20, r24
    16f2:	49 9f       	mul	r20, r25
    16f4:	40 2d       	mov	r20, r0
    16f6:	11 24       	eor	r1, r1
    16f8:	66 95       	lsr	r22
    16fa:	66 95       	lsr	r22
    16fc:	66 95       	lsr	r22
    16fe:	e6 2f       	mov	r30, r22
    1700:	f0 e0       	ldi	r31, 0x00	; 0
    1702:	e4 0f       	add	r30, r20
    1704:	f1 1d       	adc	r31, r1
    1706:	e0 0f       	add	r30, r16
    1708:	f1 1f       	adc	r31, r17
    170a:	80 81       	ld	r24, Z
    170c:	22 23       	and	r18, r18
    170e:	11 f0       	breq	.+4      	; 0x1714 <u8g_pb8h1_set_pixel+0x4e>
    1710:	a8 2b       	or	r26, r24
    1712:	02 c0       	rjmp	.+4      	; 0x1718 <u8g_pb8h1_set_pixel+0x52>
    1714:	a0 95       	com	r26
    1716:	a8 23       	and	r26, r24
    1718:	a0 83       	st	Z, r26
    171a:	df 91       	pop	r29
    171c:	cf 91       	pop	r28
    171e:	1f 91       	pop	r17
    1720:	0f 91       	pop	r16
    1722:	08 95       	ret

00001724 <u8g_pb8h1_SetPixel>:
    1724:	fc 01       	movw	r30, r24
    1726:	db 01       	movw	r26, r22
    1728:	11 96       	adiw	r26, 0x01	; 1
    172a:	4c 91       	ld	r20, X
    172c:	11 97       	sbiw	r26, 0x01	; 1
    172e:	82 81       	ldd	r24, Z+2	; 0x02
    1730:	48 17       	cp	r20, r24
    1732:	58 f0       	brcs	.+22     	; 0x174a <u8g_pb8h1_SetPixel+0x26>
    1734:	83 81       	ldd	r24, Z+3	; 0x03
    1736:	84 17       	cp	r24, r20
    1738:	40 f0       	brcs	.+16     	; 0x174a <u8g_pb8h1_SetPixel+0x26>
    173a:	6c 91       	ld	r22, X
    173c:	85 81       	ldd	r24, Z+5	; 0x05
    173e:	68 17       	cp	r22, r24
    1740:	20 f4       	brcc	.+8      	; 0x174a <u8g_pb8h1_SetPixel+0x26>
    1742:	cf 01       	movw	r24, r30
    1744:	14 96       	adiw	r26, 0x04	; 4
    1746:	2c 91       	ld	r18, X
    1748:	be cf       	rjmp	.-132    	; 0x16c6 <u8g_pb8h1_set_pixel>
    174a:	08 95       	ret

0000174c <u8g_pb8h1_Set8PixelOpt2>:
    174c:	cf 92       	push	r12
    174e:	df 92       	push	r13
    1750:	ff 92       	push	r15
    1752:	0f 93       	push	r16
    1754:	1f 93       	push	r17
    1756:	cf 93       	push	r28
    1758:	df 93       	push	r29
    175a:	6c 01       	movw	r12, r24
    175c:	eb 01       	movw	r28, r22
    175e:	fa 80       	ldd	r15, Y+2	; 0x02
    1760:	9b 81       	ldd	r25, Y+3	; 0x03
    1762:	91 30       	cpi	r25, 0x01	; 1
    1764:	51 f0       	breq	.+20     	; 0x177a <u8g_pb8h1_Set8PixelOpt2+0x2e>
    1766:	30 f0       	brcs	.+12     	; 0x1774 <u8g_pb8h1_Set8PixelOpt2+0x28>
    1768:	92 30       	cpi	r25, 0x02	; 2
    176a:	49 f0       	breq	.+18     	; 0x177e <u8g_pb8h1_Set8PixelOpt2+0x32>
    176c:	93 30       	cpi	r25, 0x03	; 3
    176e:	51 f4       	brne	.+20     	; 0x1784 <u8g_pb8h1_Set8PixelOpt2+0x38>
    1770:	1f ef       	ldi	r17, 0xFF	; 255
    1772:	09 c0       	rjmp	.+18     	; 0x1786 <u8g_pb8h1_Set8PixelOpt2+0x3a>
    1774:	10 e0       	ldi	r17, 0x00	; 0
    1776:	01 e0       	ldi	r16, 0x01	; 1
    1778:	07 c0       	rjmp	.+14     	; 0x1788 <u8g_pb8h1_Set8PixelOpt2+0x3c>
    177a:	11 e0       	ldi	r17, 0x01	; 1
    177c:	04 c0       	rjmp	.+8      	; 0x1786 <u8g_pb8h1_Set8PixelOpt2+0x3a>
    177e:	10 e0       	ldi	r17, 0x00	; 0
    1780:	0f ef       	ldi	r16, 0xFF	; 255
    1782:	02 c0       	rjmp	.+4      	; 0x1788 <u8g_pb8h1_Set8PixelOpt2+0x3c>
    1784:	10 e0       	ldi	r17, 0x00	; 0
    1786:	00 e0       	ldi	r16, 0x00	; 0
    1788:	f7 fe       	sbrs	r15, 7
    178a:	03 c0       	rjmp	.+6      	; 0x1792 <u8g_pb8h1_Set8PixelOpt2+0x46>
    178c:	be 01       	movw	r22, r28
    178e:	c6 01       	movw	r24, r12
    1790:	c9 df       	rcall	.-110    	; 0x1724 <u8g_pb8h1_SetPixel>
    1792:	98 81       	ld	r25, Y
    1794:	90 0f       	add	r25, r16
    1796:	98 83       	st	Y, r25
    1798:	99 81       	ldd	r25, Y+1	; 0x01
    179a:	91 0f       	add	r25, r17
    179c:	99 83       	std	Y+1, r25	; 0x01
    179e:	ff 0c       	add	r15, r15
    17a0:	99 f7       	brne	.-26     	; 0x1788 <u8g_pb8h1_Set8PixelOpt2+0x3c>
    17a2:	df 91       	pop	r29
    17a4:	cf 91       	pop	r28
    17a6:	1f 91       	pop	r17
    17a8:	0f 91       	pop	r16
    17aa:	ff 90       	pop	r15
    17ac:	df 90       	pop	r13
    17ae:	cf 90       	pop	r12
    17b0:	08 95       	ret

000017b2 <u8g_dev_pb8h1_base_fn>:
    17b2:	0f 93       	push	r16
    17b4:	1f 93       	push	r17
    17b6:	cf 93       	push	r28
    17b8:	df 93       	push	r29
    17ba:	89 01       	movw	r16, r18
    17bc:	fb 01       	movw	r30, r22
    17be:	c2 81       	ldd	r28, Z+2	; 0x02
    17c0:	d3 81       	ldd	r29, Z+3	; 0x03
    17c2:	42 33       	cpi	r20, 0x32	; 50
    17c4:	d9 f0       	breq	.+54     	; 0x17fc <u8g_dev_pb8h1_base_fn+0x4a>
    17c6:	58 f4       	brcc	.+22     	; 0x17de <u8g_dev_pb8h1_base_fn+0x2c>
    17c8:	45 31       	cpi	r20, 0x15	; 21
    17ca:	e1 f0       	breq	.+56     	; 0x1804 <u8g_dev_pb8h1_base_fn+0x52>
    17cc:	47 31       	cpi	r20, 0x17	; 23
    17ce:	09 f1       	breq	.+66     	; 0x1812 <u8g_dev_pb8h1_base_fn+0x60>
    17d0:	44 31       	cpi	r20, 0x14	; 20
    17d2:	41 f5       	brne	.+80     	; 0x1824 <u8g_dev_pb8h1_base_fn+0x72>
    17d4:	ce 01       	movw	r24, r28
    17d6:	2c d0       	rcall	.+88     	; 0x1830 <u8g_pb_Clear>
    17d8:	ce 01       	movw	r24, r28
    17da:	71 d5       	rcall	.+2786   	; 0x22be <u8g_page_First>
    17dc:	23 c0       	rjmp	.+70     	; 0x1824 <u8g_dev_pb8h1_base_fn+0x72>
    17de:	46 34       	cpi	r20, 0x46	; 70
    17e0:	e1 f0       	breq	.+56     	; 0x181a <u8g_dev_pb8h1_base_fn+0x68>
    17e2:	47 34       	cpi	r20, 0x47	; 71
    17e4:	e1 f0       	breq	.+56     	; 0x181e <u8g_dev_pb8h1_base_fn+0x6c>
    17e6:	4b 33       	cpi	r20, 0x3B	; 59
    17e8:	e9 f4       	brne	.+58     	; 0x1824 <u8g_dev_pb8h1_base_fn+0x72>
    17ea:	b9 01       	movw	r22, r18
    17ec:	ce 01       	movw	r24, r28
    17ee:	56 d0       	rcall	.+172    	; 0x189c <u8g_pb_Is8PixelVisible>
    17f0:	88 23       	and	r24, r24
    17f2:	c1 f0       	breq	.+48     	; 0x1824 <u8g_dev_pb8h1_base_fn+0x72>
    17f4:	b8 01       	movw	r22, r16
    17f6:	ce 01       	movw	r24, r28
    17f8:	a9 df       	rcall	.-174    	; 0x174c <u8g_pb8h1_Set8PixelOpt2>
    17fa:	14 c0       	rjmp	.+40     	; 0x1824 <u8g_dev_pb8h1_base_fn+0x72>
    17fc:	b9 01       	movw	r22, r18
    17fe:	ce 01       	movw	r24, r28
    1800:	91 df       	rcall	.-222    	; 0x1724 <u8g_pb8h1_SetPixel>
    1802:	10 c0       	rjmp	.+32     	; 0x1824 <u8g_dev_pb8h1_base_fn+0x72>
    1804:	ce 01       	movw	r24, r28
    1806:	62 d5       	rcall	.+2756   	; 0x22cc <u8g_page_Next>
    1808:	88 23       	and	r24, r24
    180a:	69 f0       	breq	.+26     	; 0x1826 <u8g_dev_pb8h1_base_fn+0x74>
    180c:	ce 01       	movw	r24, r28
    180e:	10 d0       	rcall	.+32     	; 0x1830 <u8g_pb_Clear>
    1810:	09 c0       	rjmp	.+18     	; 0x1824 <u8g_dev_pb8h1_base_fn+0x72>
    1812:	b9 01       	movw	r22, r18
    1814:	ce 01       	movw	r24, r28
    1816:	32 d0       	rcall	.+100    	; 0x187c <u8g_pb_GetPageBox>
    1818:	05 c0       	rjmp	.+10     	; 0x1824 <u8g_dev_pb8h1_base_fn+0x72>
    181a:	8d 81       	ldd	r24, Y+5	; 0x05
    181c:	01 c0       	rjmp	.+2      	; 0x1820 <u8g_dev_pb8h1_base_fn+0x6e>
    181e:	89 81       	ldd	r24, Y+1	; 0x01
    1820:	f8 01       	movw	r30, r16
    1822:	80 83       	st	Z, r24
    1824:	81 e0       	ldi	r24, 0x01	; 1
    1826:	df 91       	pop	r29
    1828:	cf 91       	pop	r28
    182a:	1f 91       	pop	r17
    182c:	0f 91       	pop	r16
    182e:	08 95       	ret

00001830 <u8g_pb_Clear>:
    1830:	dc 01       	movw	r26, r24
    1832:	16 96       	adiw	r26, 0x06	; 6
    1834:	ed 91       	ld	r30, X+
    1836:	fc 91       	ld	r31, X
    1838:	17 97       	sbiw	r26, 0x07	; 7
    183a:	15 96       	adiw	r26, 0x05	; 5
    183c:	8c 91       	ld	r24, X
    183e:	9f 01       	movw	r18, r30
    1840:	28 0f       	add	r18, r24
    1842:	31 1d       	adc	r19, r1
    1844:	c9 01       	movw	r24, r18
    1846:	11 92       	st	Z+, r1
    1848:	e8 17       	cp	r30, r24
    184a:	f9 07       	cpc	r31, r25
    184c:	e1 f7       	brne	.-8      	; 0x1846 <u8g_pb_Clear+0x16>
    184e:	08 95       	ret

00001850 <u8g_pb_IsYIntersection>:
    1850:	fc 01       	movw	r30, r24
    1852:	91 e0       	ldi	r25, 0x01	; 1
    1854:	83 81       	ldd	r24, Z+3	; 0x03
    1856:	86 17       	cp	r24, r22
    1858:	08 f4       	brcc	.+2      	; 0x185c <u8g_pb_IsYIntersection+0xc>
    185a:	90 e0       	ldi	r25, 0x00	; 0
    185c:	31 e0       	ldi	r19, 0x01	; 1
    185e:	46 17       	cp	r20, r22
    1860:	08 f0       	brcs	.+2      	; 0x1864 <u8g_pb_IsYIntersection+0x14>
    1862:	30 e0       	ldi	r19, 0x00	; 0
    1864:	83 2f       	mov	r24, r19
    1866:	89 2b       	or	r24, r25
    1868:	21 e0       	ldi	r18, 0x01	; 1
    186a:	52 81       	ldd	r21, Z+2	; 0x02
    186c:	45 17       	cp	r20, r21
    186e:	08 f4       	brcc	.+2      	; 0x1872 <u8g_pb_IsYIntersection+0x22>
    1870:	20 e0       	ldi	r18, 0x00	; 0
    1872:	28 23       	and	r18, r24
    1874:	83 2f       	mov	r24, r19
    1876:	89 23       	and	r24, r25
    1878:	82 2b       	or	r24, r18
    187a:	08 95       	ret

0000187c <u8g_pb_GetPageBox>:
    187c:	dc 01       	movw	r26, r24
    187e:	fb 01       	movw	r30, r22
    1880:	10 82       	st	Z, r1
    1882:	12 96       	adiw	r26, 0x02	; 2
    1884:	8c 91       	ld	r24, X
    1886:	12 97       	sbiw	r26, 0x02	; 2
    1888:	81 83       	std	Z+1, r24	; 0x01
    188a:	15 96       	adiw	r26, 0x05	; 5
    188c:	8c 91       	ld	r24, X
    188e:	15 97       	sbiw	r26, 0x05	; 5
    1890:	81 50       	subi	r24, 0x01	; 1
    1892:	82 83       	std	Z+2, r24	; 0x02
    1894:	13 96       	adiw	r26, 0x03	; 3
    1896:	8c 91       	ld	r24, X
    1898:	83 83       	std	Z+3, r24	; 0x03
    189a:	08 95       	ret

0000189c <u8g_pb_Is8PixelVisible>:
    189c:	fb 01       	movw	r30, r22
    189e:	41 81       	ldd	r20, Z+1	; 0x01
    18a0:	23 81       	ldd	r18, Z+3	; 0x03
    18a2:	21 30       	cpi	r18, 0x01	; 1
    18a4:	29 f0       	breq	.+10     	; 0x18b0 <u8g_pb_Is8PixelVisible+0x14>
    18a6:	23 30       	cpi	r18, 0x03	; 3
    18a8:	31 f4       	brne	.+12     	; 0x18b6 <u8g_pb_Is8PixelVisible+0x1a>
    18aa:	68 ef       	ldi	r22, 0xF8	; 248
    18ac:	64 0f       	add	r22, r20
    18ae:	04 c0       	rjmp	.+8      	; 0x18b8 <u8g_pb_Is8PixelVisible+0x1c>
    18b0:	64 2f       	mov	r22, r20
    18b2:	48 5f       	subi	r20, 0xF8	; 248
    18b4:	01 c0       	rjmp	.+2      	; 0x18b8 <u8g_pb_Is8PixelVisible+0x1c>
    18b6:	64 2f       	mov	r22, r20
    18b8:	cb cf       	rjmp	.-106    	; 0x1850 <u8g_pb_IsYIntersection>

000018ba <u8g_draw_vline>:
    18ba:	a0 e0       	ldi	r26, 0x00	; 0
    18bc:	b0 e0       	ldi	r27, 0x00	; 0
    18be:	e2 e6       	ldi	r30, 0x62	; 98
    18c0:	fc e0       	ldi	r31, 0x0C	; 12
    18c2:	ea c5       	rjmp	.+3028   	; 0x2498 <__prologue_saves__+0x14>
    18c4:	7c 01       	movw	r14, r24
    18c6:	d6 2e       	mov	r13, r22
    18c8:	d4 2f       	mov	r29, r20
    18ca:	c2 2f       	mov	r28, r18
    18cc:	12 2f       	mov	r17, r18
    18ce:	c4 2e       	mov	r12, r20
    18d0:	c2 0e       	add	r12, r18
    18d2:	4c 2d       	mov	r20, r12
    18d4:	41 1b       	sub	r20, r17
    18d6:	18 30       	cpi	r17, 0x08	; 8
    18d8:	38 f0       	brcs	.+14     	; 0x18e8 <u8g_draw_vline+0x2e>
    18da:	0f ef       	ldi	r16, 0xFF	; 255
    18dc:	21 e0       	ldi	r18, 0x01	; 1
    18de:	6d 2d       	mov	r22, r13
    18e0:	c7 01       	movw	r24, r14
    18e2:	e0 de       	rcall	.-576    	; 0x16a4 <u8g_Draw8Pixel>
    18e4:	18 50       	subi	r17, 0x08	; 8
    18e6:	f5 cf       	rjmp	.-22     	; 0x18d2 <u8g_draw_vline+0x18>
    18e8:	4c 2f       	mov	r20, r28
    18ea:	48 7f       	andi	r20, 0xF8	; 248
    18ec:	4d 0f       	add	r20, r29
    18ee:	2c 2f       	mov	r18, r28
    18f0:	27 70       	andi	r18, 0x07	; 7
    18f2:	79 f0       	breq	.+30     	; 0x1912 <u8g_draw_vline+0x58>
    18f4:	97 e0       	ldi	r25, 0x07	; 7
    18f6:	29 27       	eor	r18, r25
    18f8:	2f 5f       	subi	r18, 0xFF	; 255
    18fa:	27 70       	andi	r18, 0x07	; 7
    18fc:	0f ef       	ldi	r16, 0xFF	; 255
    18fe:	10 e0       	ldi	r17, 0x00	; 0
    1900:	02 c0       	rjmp	.+4      	; 0x1906 <u8g_draw_vline+0x4c>
    1902:	00 0f       	add	r16, r16
    1904:	11 1f       	adc	r17, r17
    1906:	2a 95       	dec	r18
    1908:	e2 f7       	brpl	.-8      	; 0x1902 <u8g_draw_vline+0x48>
    190a:	21 e0       	ldi	r18, 0x01	; 1
    190c:	6d 2d       	mov	r22, r13
    190e:	c7 01       	movw	r24, r14
    1910:	c9 de       	rcall	.-622    	; 0x16a4 <u8g_Draw8Pixel>
    1912:	cd b7       	in	r28, 0x3d	; 61
    1914:	de b7       	in	r29, 0x3e	; 62
    1916:	e8 e0       	ldi	r30, 0x08	; 8
    1918:	db c5       	rjmp	.+2998   	; 0x24d0 <__epilogue_restores__+0x14>

0000191a <u8g_DrawVLine>:
    191a:	ef 92       	push	r14
    191c:	ff 92       	push	r15
    191e:	0f 93       	push	r16
    1920:	1f 93       	push	r17
    1922:	cf 93       	push	r28
    1924:	df 93       	push	r29
    1926:	ec 01       	movw	r28, r24
    1928:	16 2f       	mov	r17, r22
    192a:	f4 2e       	mov	r15, r20
    192c:	e2 2e       	mov	r14, r18
    192e:	02 2f       	mov	r16, r18
    1930:	21 e0       	ldi	r18, 0x01	; 1
    1932:	10 da       	rcall	.-3040   	; 0xd54 <u8g_IsBBXIntersection>
    1934:	88 23       	and	r24, r24
    1936:	29 f0       	breq	.+10     	; 0x1942 <u8g_DrawVLine+0x28>
    1938:	2e 2d       	mov	r18, r14
    193a:	4f 2d       	mov	r20, r15
    193c:	61 2f       	mov	r22, r17
    193e:	ce 01       	movw	r24, r28
    1940:	bc df       	rcall	.-136    	; 0x18ba <u8g_draw_vline>
    1942:	cd b7       	in	r28, 0x3d	; 61
    1944:	de b7       	in	r29, 0x3e	; 62
    1946:	e6 e0       	ldi	r30, 0x06	; 6
    1948:	c5 c5       	rjmp	.+2954   	; 0x24d4 <__epilogue_restores__+0x18>

0000194a <u8g_dev_rot_dummy_fn>:
    194a:	80 e0       	ldi	r24, 0x00	; 0
    194c:	08 95       	ret

0000194e <u8g_dev_rot180_fn>:
    194e:	8f 92       	push	r8
    1950:	9f 92       	push	r9
    1952:	bf 92       	push	r11
    1954:	cf 92       	push	r12
    1956:	df 92       	push	r13
    1958:	ef 92       	push	r14
    195a:	ff 92       	push	r15
    195c:	0f 93       	push	r16
    195e:	1f 93       	push	r17
    1960:	cf 93       	push	r28
    1962:	df 93       	push	r29
    1964:	1f 92       	push	r1
    1966:	cd b7       	in	r28, 0x3d	; 61
    1968:	de b7       	in	r29, 0x3e	; 62
    196a:	8c 01       	movw	r16, r24
    196c:	49 01       	movw	r8, r18
    196e:	fb 01       	movw	r30, r22
    1970:	e2 80       	ldd	r14, Z+2	; 0x02
    1972:	f3 80       	ldd	r15, Z+3	; 0x03
    1974:	42 33       	cpi	r20, 0x32	; 50
    1976:	09 f4       	brne	.+2      	; 0x197a <u8g_dev_rot180_fn+0x2c>
    1978:	42 c0       	rjmp	.+132    	; 0x19fe <u8g_dev_rot180_fn+0xb0>
    197a:	48 f4       	brcc	.+18     	; 0x198e <u8g_dev_rot180_fn+0x40>
    197c:	4c 32       	cpi	r20, 0x2C	; 44
    197e:	09 f4       	brne	.+2      	; 0x1982 <u8g_dev_rot180_fn+0x34>
    1980:	3e c0       	rjmp	.+124    	; 0x19fe <u8g_dev_rot180_fn+0xb0>
    1982:	4d 32       	cpi	r20, 0x2D	; 45
    1984:	09 f4       	brne	.+2      	; 0x1988 <u8g_dev_rot180_fn+0x3a>
    1986:	4d c0       	rjmp	.+154    	; 0x1a22 <u8g_dev_rot180_fn+0xd4>
    1988:	47 31       	cpi	r20, 0x17	; 23
    198a:	69 f0       	breq	.+26     	; 0x19a6 <u8g_dev_rot180_fn+0x58>
    198c:	07 c0       	rjmp	.+14     	; 0x199c <u8g_dev_rot180_fn+0x4e>
    198e:	46 34       	cpi	r20, 0x46	; 70
    1990:	71 f1       	breq	.+92     	; 0x19ee <u8g_dev_rot180_fn+0xa0>
    1992:	47 34       	cpi	r20, 0x47	; 71
    1994:	79 f1       	breq	.+94     	; 0x19f4 <u8g_dev_rot180_fn+0xa6>
    1996:	4b 33       	cpi	r20, 0x3B	; 59
    1998:	09 f4       	brne	.+2      	; 0x199c <u8g_dev_rot180_fn+0x4e>
    199a:	43 c0       	rjmp	.+134    	; 0x1a22 <u8g_dev_rot180_fn+0xd4>
    199c:	94 01       	movw	r18, r8
    199e:	b7 01       	movw	r22, r14
    19a0:	c8 01       	movw	r24, r16
    19a2:	67 dd       	rcall	.-1330   	; 0x1472 <u8g_call_dev_fn>
    19a4:	59 c0       	rjmp	.+178    	; 0x1a58 <u8g_dev_rot180_fn+0x10a>
    19a6:	47 e1       	ldi	r20, 0x17	; 23
    19a8:	b7 01       	movw	r22, r14
    19aa:	63 dd       	rcall	.-1338   	; 0x1472 <u8g_call_dev_fn>
    19ac:	b7 01       	movw	r22, r14
    19ae:	c8 01       	movw	r24, r16
    19b0:	ec dd       	rcall	.-1064   	; 0x158a <u8g_GetWidthLL>
    19b2:	f4 01       	movw	r30, r8
    19b4:	b2 80       	ldd	r11, Z+2	; 0x02
    19b6:	b0 94       	com	r11
    19b8:	b8 0e       	add	r11, r24
    19ba:	b7 01       	movw	r22, r14
    19bc:	c8 01       	movw	r24, r16
    19be:	e5 dd       	rcall	.-1078   	; 0x158a <u8g_GetWidthLL>
    19c0:	f4 01       	movw	r30, r8
    19c2:	d0 80       	ld	r13, Z
    19c4:	d0 94       	com	r13
    19c6:	d8 0e       	add	r13, r24
    19c8:	b7 01       	movw	r22, r14
    19ca:	c8 01       	movw	r24, r16
    19cc:	ec dd       	rcall	.-1064   	; 0x15a6 <u8g_GetHeightLL>
    19ce:	f4 01       	movw	r30, r8
    19d0:	c3 80       	ldd	r12, Z+3	; 0x03
    19d2:	c0 94       	com	r12
    19d4:	c8 0e       	add	r12, r24
    19d6:	b7 01       	movw	r22, r14
    19d8:	c8 01       	movw	r24, r16
    19da:	e5 dd       	rcall	.-1078   	; 0x15a6 <u8g_GetHeightLL>
    19dc:	f4 01       	movw	r30, r8
    19de:	91 81       	ldd	r25, Z+1	; 0x01
    19e0:	90 95       	com	r25
    19e2:	89 0f       	add	r24, r25
    19e4:	b0 82       	st	Z, r11
    19e6:	c1 82       	std	Z+1, r12	; 0x01
    19e8:	d2 82       	std	Z+2, r13	; 0x02
    19ea:	83 83       	std	Z+3, r24	; 0x03
    19ec:	34 c0       	rjmp	.+104    	; 0x1a56 <u8g_dev_rot180_fn+0x108>
    19ee:	b7 01       	movw	r22, r14
    19f0:	cc dd       	rcall	.-1128   	; 0x158a <u8g_GetWidthLL>
    19f2:	02 c0       	rjmp	.+4      	; 0x19f8 <u8g_dev_rot180_fn+0xaa>
    19f4:	b7 01       	movw	r22, r14
    19f6:	d7 dd       	rcall	.-1106   	; 0x15a6 <u8g_GetHeightLL>
    19f8:	f4 01       	movw	r30, r8
    19fa:	80 83       	st	Z, r24
    19fc:	2c c0       	rjmp	.+88     	; 0x1a56 <u8g_dev_rot180_fn+0x108>
    19fe:	b7 01       	movw	r22, r14
    1a00:	c8 01       	movw	r24, r16
    1a02:	49 83       	std	Y+1, r20	; 0x01
    1a04:	d0 dd       	rcall	.-1120   	; 0x15a6 <u8g_GetHeightLL>
    1a06:	f4 01       	movw	r30, r8
    1a08:	d1 80       	ldd	r13, Z+1	; 0x01
    1a0a:	d0 94       	com	r13
    1a0c:	d8 0e       	add	r13, r24
    1a0e:	b7 01       	movw	r22, r14
    1a10:	c8 01       	movw	r24, r16
    1a12:	bb dd       	rcall	.-1162   	; 0x158a <u8g_GetWidthLL>
    1a14:	f4 01       	movw	r30, r8
    1a16:	90 81       	ld	r25, Z
    1a18:	90 95       	com	r25
    1a1a:	89 0f       	add	r24, r25
    1a1c:	80 83       	st	Z, r24
    1a1e:	d1 82       	std	Z+1, r13	; 0x01
    1a20:	15 c0       	rjmp	.+42     	; 0x1a4c <u8g_dev_rot180_fn+0xfe>
    1a22:	b7 01       	movw	r22, r14
    1a24:	c8 01       	movw	r24, r16
    1a26:	49 83       	std	Y+1, r20	; 0x01
    1a28:	be dd       	rcall	.-1156   	; 0x15a6 <u8g_GetHeightLL>
    1a2a:	f4 01       	movw	r30, r8
    1a2c:	d1 80       	ldd	r13, Z+1	; 0x01
    1a2e:	d0 94       	com	r13
    1a30:	d8 0e       	add	r13, r24
    1a32:	b7 01       	movw	r22, r14
    1a34:	c8 01       	movw	r24, r16
    1a36:	a9 dd       	rcall	.-1198   	; 0x158a <u8g_GetWidthLL>
    1a38:	f4 01       	movw	r30, r8
    1a3a:	90 81       	ld	r25, Z
    1a3c:	90 95       	com	r25
    1a3e:	89 0f       	add	r24, r25
    1a40:	80 83       	st	Z, r24
    1a42:	d1 82       	std	Z+1, r13	; 0x01
    1a44:	83 81       	ldd	r24, Z+3	; 0x03
    1a46:	8e 5f       	subi	r24, 0xFE	; 254
    1a48:	83 70       	andi	r24, 0x03	; 3
    1a4a:	83 83       	std	Z+3, r24	; 0x03
    1a4c:	94 01       	movw	r18, r8
    1a4e:	49 81       	ldd	r20, Y+1	; 0x01
    1a50:	b7 01       	movw	r22, r14
    1a52:	c8 01       	movw	r24, r16
    1a54:	0e dd       	rcall	.-1508   	; 0x1472 <u8g_call_dev_fn>
    1a56:	81 e0       	ldi	r24, 0x01	; 1
    1a58:	0f 90       	pop	r0
    1a5a:	df 91       	pop	r29
    1a5c:	cf 91       	pop	r28
    1a5e:	1f 91       	pop	r17
    1a60:	0f 91       	pop	r16
    1a62:	ff 90       	pop	r15
    1a64:	ef 90       	pop	r14
    1a66:	df 90       	pop	r13
    1a68:	cf 90       	pop	r12
    1a6a:	bf 90       	pop	r11
    1a6c:	9f 90       	pop	r9
    1a6e:	8f 90       	pop	r8
    1a70:	08 95       	ret

00001a72 <u8g_SetRot180>:
    1a72:	fc 01       	movw	r30, r24
    1a74:	22 81       	ldd	r18, Z+2	; 0x02
    1a76:	33 81       	ldd	r19, Z+3	; 0x03
    1a78:	f1 e0       	ldi	r31, 0x01	; 1
    1a7a:	2f 36       	cpi	r18, 0x6F	; 111
    1a7c:	3f 07       	cpc	r19, r31
    1a7e:	49 f0       	breq	.+18     	; 0x1a92 <u8g_SetRot180+0x20>
    1a80:	30 93 72 01 	sts	0x0172, r19
    1a84:	20 93 71 01 	sts	0x0171, r18
    1a88:	2f e6       	ldi	r18, 0x6F	; 111
    1a8a:	31 e0       	ldi	r19, 0x01	; 1
    1a8c:	fc 01       	movw	r30, r24
    1a8e:	33 83       	std	Z+3, r19	; 0x03
    1a90:	22 83       	std	Z+2, r18	; 0x02
    1a92:	27 ea       	ldi	r18, 0xA7	; 167
    1a94:	3c e0       	ldi	r19, 0x0C	; 12
    1a96:	30 93 70 01 	sts	0x0170, r19
    1a9a:	20 93 6f 01 	sts	0x016F, r18
    1a9e:	95 cd       	rjmp	.-1238   	; 0x15ca <u8g_UpdateDimension>

00001aa0 <u8g_dev_scale_2x2_fn>:
    1aa0:	a1 e0       	ldi	r26, 0x01	; 1
    1aa2:	b0 e0       	ldi	r27, 0x00	; 0
    1aa4:	e5 e5       	ldi	r30, 0x55	; 85
    1aa6:	fd e0       	ldi	r31, 0x0D	; 13
    1aa8:	f1 c4       	rjmp	.+2530   	; 0x248c <__prologue_saves__+0x8>
    1aaa:	8c 01       	movw	r16, r24
    1aac:	39 01       	movw	r6, r18
    1aae:	fb 01       	movw	r30, r22
    1ab0:	e2 80       	ldd	r14, Z+2	; 0x02
    1ab2:	f3 80       	ldd	r15, Z+3	; 0x03
    1ab4:	4b 33       	cpi	r20, 0x3B	; 59
    1ab6:	09 f4       	brne	.+2      	; 0x1aba <u8g_dev_scale_2x2_fn+0x1a>
    1ab8:	4d c0       	rjmp	.+154    	; 0x1b54 <u8g_dev_scale_2x2_fn+0xb4>
    1aba:	28 f4       	brcc	.+10     	; 0x1ac6 <u8g_dev_scale_2x2_fn+0x26>
    1abc:	47 31       	cpi	r20, 0x17	; 23
    1abe:	a9 f0       	breq	.+42     	; 0x1aea <u8g_dev_scale_2x2_fn+0x4a>
    1ac0:	42 33       	cpi	r20, 0x32	; 50
    1ac2:	21 f1       	breq	.+72     	; 0x1b0c <u8g_dev_scale_2x2_fn+0x6c>
    1ac4:	04 c0       	rjmp	.+8      	; 0x1ace <u8g_dev_scale_2x2_fn+0x2e>
    1ac6:	46 34       	cpi	r20, 0x46	; 70
    1ac8:	39 f0       	breq	.+14     	; 0x1ad8 <u8g_dev_scale_2x2_fn+0x38>
    1aca:	47 34       	cpi	r20, 0x47	; 71
    1acc:	41 f0       	breq	.+16     	; 0x1ade <u8g_dev_scale_2x2_fn+0x3e>
    1ace:	93 01       	movw	r18, r6
    1ad0:	b7 01       	movw	r22, r14
    1ad2:	c8 01       	movw	r24, r16
    1ad4:	ce dc       	rcall	.-1636   	; 0x1472 <u8g_call_dev_fn>
    1ad6:	a2 c0       	rjmp	.+324    	; 0x1c1c <u8g_dev_scale_2x2_fn+0x17c>
    1ad8:	b7 01       	movw	r22, r14
    1ada:	57 dd       	rcall	.-1362   	; 0x158a <u8g_GetWidthLL>
    1adc:	02 c0       	rjmp	.+4      	; 0x1ae2 <u8g_dev_scale_2x2_fn+0x42>
    1ade:	b7 01       	movw	r22, r14
    1ae0:	62 dd       	rcall	.-1340   	; 0x15a6 <u8g_GetHeightLL>
    1ae2:	86 95       	lsr	r24
    1ae4:	f3 01       	movw	r30, r6
    1ae6:	80 83       	st	Z, r24
    1ae8:	98 c0       	rjmp	.+304    	; 0x1c1a <u8g_dev_scale_2x2_fn+0x17a>
    1aea:	47 e1       	ldi	r20, 0x17	; 23
    1aec:	b7 01       	movw	r22, r14
    1aee:	c1 dc       	rcall	.-1662   	; 0x1472 <u8g_call_dev_fn>
    1af0:	f3 01       	movw	r30, r6
    1af2:	80 81       	ld	r24, Z
    1af4:	86 95       	lsr	r24
    1af6:	80 83       	st	Z, r24
    1af8:	82 81       	ldd	r24, Z+2	; 0x02
    1afa:	86 95       	lsr	r24
    1afc:	82 83       	std	Z+2, r24	; 0x02
    1afe:	81 81       	ldd	r24, Z+1	; 0x01
    1b00:	86 95       	lsr	r24
    1b02:	81 83       	std	Z+1, r24	; 0x01
    1b04:	83 81       	ldd	r24, Z+3	; 0x03
    1b06:	86 95       	lsr	r24
    1b08:	83 83       	std	Z+3, r24	; 0x03
    1b0a:	87 c0       	rjmp	.+270    	; 0x1c1a <u8g_dev_scale_2x2_fn+0x17a>
    1b0c:	f9 01       	movw	r30, r18
    1b0e:	c0 80       	ld	r12, Z
    1b10:	cc 0c       	add	r12, r12
    1b12:	d1 80       	ldd	r13, Z+1	; 0x01
    1b14:	dd 0c       	add	r13, r13
    1b16:	c0 82       	st	Z, r12
    1b18:	d1 82       	std	Z+1, r13	; 0x01
    1b1a:	42 e3       	ldi	r20, 0x32	; 50
    1b1c:	b7 01       	movw	r22, r14
    1b1e:	a9 dc       	rcall	.-1710   	; 0x1472 <u8g_call_dev_fn>
    1b20:	bb 24       	eor	r11, r11
    1b22:	b3 94       	inc	r11
    1b24:	bc 0c       	add	r11, r12
    1b26:	f3 01       	movw	r30, r6
    1b28:	b0 82       	st	Z, r11
    1b2a:	d1 82       	std	Z+1, r13	; 0x01
    1b2c:	93 01       	movw	r18, r6
    1b2e:	42 e3       	ldi	r20, 0x32	; 50
    1b30:	b7 01       	movw	r22, r14
    1b32:	c8 01       	movw	r24, r16
    1b34:	9e dc       	rcall	.-1732   	; 0x1472 <u8g_call_dev_fn>
    1b36:	d3 94       	inc	r13
    1b38:	f3 01       	movw	r30, r6
    1b3a:	b0 82       	st	Z, r11
    1b3c:	d1 82       	std	Z+1, r13	; 0x01
    1b3e:	93 01       	movw	r18, r6
    1b40:	42 e3       	ldi	r20, 0x32	; 50
    1b42:	b7 01       	movw	r22, r14
    1b44:	c8 01       	movw	r24, r16
    1b46:	95 dc       	rcall	.-1750   	; 0x1472 <u8g_call_dev_fn>
    1b48:	f3 01       	movw	r30, r6
    1b4a:	c0 82       	st	Z, r12
    1b4c:	d1 82       	std	Z+1, r13	; 0x01
    1b4e:	93 01       	movw	r18, r6
    1b50:	42 e3       	ldi	r20, 0x32	; 50
    1b52:	60 c0       	rjmp	.+192    	; 0x1c14 <u8g_dev_scale_2x2_fn+0x174>
    1b54:	f9 01       	movw	r30, r18
    1b56:	92 81       	ldd	r25, Z+2	; 0x02
    1b58:	c3 80       	ldd	r12, Z+3	; 0x03
    1b5a:	88 e0       	ldi	r24, 0x08	; 8
    1b5c:	a1 2c       	mov	r10, r1
    1b5e:	b1 2c       	mov	r11, r1
    1b60:	aa 0c       	add	r10, r10
    1b62:	bb 1c       	adc	r11, r11
    1b64:	aa 0c       	add	r10, r10
    1b66:	bb 1c       	adc	r11, r11
    1b68:	97 ff       	sbrs	r25, 7
    1b6a:	02 c0       	rjmp	.+4      	; 0x1b70 <u8g_dev_scale_2x2_fn+0xd0>
    1b6c:	f3 e0       	ldi	r31, 0x03	; 3
    1b6e:	af 2a       	or	r10, r31
    1b70:	99 0f       	add	r25, r25
    1b72:	81 50       	subi	r24, 0x01	; 1
    1b74:	a9 f7       	brne	.-22     	; 0x1b60 <u8g_dev_scale_2x2_fn+0xc0>
    1b76:	f3 01       	movw	r30, r6
    1b78:	d0 80       	ld	r13, Z
    1b7a:	dd 0c       	add	r13, r13
    1b7c:	51 81       	ldd	r21, Z+1	; 0x01
    1b7e:	55 0f       	add	r21, r21
    1b80:	c0 fe       	sbrs	r12, 0
    1b82:	05 c0       	rjmp	.+10     	; 0x1b8e <u8g_dev_scale_2x2_fn+0xee>
    1b84:	88 24       	eor	r8, r8
    1b86:	83 94       	inc	r8
    1b88:	8d 0c       	add	r8, r13
    1b8a:	95 2e       	mov	r9, r21
    1b8c:	04 c0       	rjmp	.+8      	; 0x1b96 <u8g_dev_scale_2x2_fn+0xf6>
    1b8e:	99 24       	eor	r9, r9
    1b90:	93 94       	inc	r9
    1b92:	95 0e       	add	r9, r21
    1b94:	8d 2c       	mov	r8, r13
    1b96:	f3 01       	movw	r30, r6
    1b98:	b2 82       	std	Z+2, r11	; 0x02
    1b9a:	d0 82       	st	Z, r13
    1b9c:	51 83       	std	Z+1, r21	; 0x01
    1b9e:	93 01       	movw	r18, r6
    1ba0:	4b e3       	ldi	r20, 0x3B	; 59
    1ba2:	b7 01       	movw	r22, r14
    1ba4:	c8 01       	movw	r24, r16
    1ba6:	59 83       	std	Y+1, r21	; 0x01
    1ba8:	64 dc       	rcall	.-1848   	; 0x1472 <u8g_call_dev_fn>
    1baa:	f3 01       	movw	r30, r6
    1bac:	80 82       	st	Z, r8
    1bae:	91 82       	std	Z+1, r9	; 0x01
    1bb0:	c3 82       	std	Z+3, r12	; 0x03
    1bb2:	93 01       	movw	r18, r6
    1bb4:	4b e3       	ldi	r20, 0x3B	; 59
    1bb6:	b7 01       	movw	r22, r14
    1bb8:	c8 01       	movw	r24, r16
    1bba:	5b dc       	rcall	.-1866   	; 0x1472 <u8g_call_dev_fn>
    1bbc:	f3 01       	movw	r30, r6
    1bbe:	a2 82       	std	Z+2, r10	; 0x02
    1bc0:	59 81       	ldd	r21, Y+1	; 0x01
    1bc2:	f1 e0       	ldi	r31, 0x01	; 1
    1bc4:	cf 16       	cp	r12, r31
    1bc6:	81 f0       	breq	.+32     	; 0x1be8 <u8g_dev_scale_2x2_fn+0x148>
    1bc8:	cf 16       	cp	r12, r31
    1bca:	50 f0       	brcs	.+20     	; 0x1be0 <u8g_dev_scale_2x2_fn+0x140>
    1bcc:	22 e0       	ldi	r18, 0x02	; 2
    1bce:	c2 16       	cp	r12, r18
    1bd0:	79 f0       	breq	.+30     	; 0x1bf0 <u8g_dev_scale_2x2_fn+0x150>
    1bd2:	83 e0       	ldi	r24, 0x03	; 3
    1bd4:	c8 12       	cpse	r12, r24
    1bd6:	0f c0       	rjmp	.+30     	; 0x1bf6 <u8g_dev_scale_2x2_fn+0x156>
    1bd8:	58 50       	subi	r21, 0x08	; 8
    1bda:	88 ef       	ldi	r24, 0xF8	; 248
    1bdc:	98 0e       	add	r9, r24
    1bde:	0b c0       	rjmp	.+22     	; 0x1bf6 <u8g_dev_scale_2x2_fn+0x156>
    1be0:	e8 e0       	ldi	r30, 0x08	; 8
    1be2:	de 0e       	add	r13, r30
    1be4:	8e 0e       	add	r8, r30
    1be6:	07 c0       	rjmp	.+14     	; 0x1bf6 <u8g_dev_scale_2x2_fn+0x156>
    1be8:	58 5f       	subi	r21, 0xF8	; 248
    1bea:	f8 e0       	ldi	r31, 0x08	; 8
    1bec:	9f 0e       	add	r9, r31
    1bee:	03 c0       	rjmp	.+6      	; 0x1bf6 <u8g_dev_scale_2x2_fn+0x156>
    1bf0:	28 ef       	ldi	r18, 0xF8	; 248
    1bf2:	d2 0e       	add	r13, r18
    1bf4:	82 0e       	add	r8, r18
    1bf6:	f3 01       	movw	r30, r6
    1bf8:	d0 82       	st	Z, r13
    1bfa:	51 83       	std	Z+1, r21	; 0x01
    1bfc:	c3 82       	std	Z+3, r12	; 0x03
    1bfe:	93 01       	movw	r18, r6
    1c00:	4b e3       	ldi	r20, 0x3B	; 59
    1c02:	b7 01       	movw	r22, r14
    1c04:	c8 01       	movw	r24, r16
    1c06:	35 dc       	rcall	.-1942   	; 0x1472 <u8g_call_dev_fn>
    1c08:	f3 01       	movw	r30, r6
    1c0a:	80 82       	st	Z, r8
    1c0c:	91 82       	std	Z+1, r9	; 0x01
    1c0e:	c3 82       	std	Z+3, r12	; 0x03
    1c10:	93 01       	movw	r18, r6
    1c12:	4b e3       	ldi	r20, 0x3B	; 59
    1c14:	b7 01       	movw	r22, r14
    1c16:	c8 01       	movw	r24, r16
    1c18:	2c dc       	rcall	.-1960   	; 0x1472 <u8g_call_dev_fn>
    1c1a:	81 e0       	ldi	r24, 0x01	; 1
    1c1c:	21 96       	adiw	r28, 0x01	; 1
    1c1e:	ee e0       	ldi	r30, 0x0E	; 14
    1c20:	51 c4       	rjmp	.+2210   	; 0x24c4 <__epilogue_restores__+0x8>

00001c22 <u8g_UndoScale>:
    1c22:	fc 01       	movw	r30, r24
    1c24:	22 81       	ldd	r18, Z+2	; 0x02
    1c26:	33 81       	ldd	r19, Z+3	; 0x03
    1c28:	25 57       	subi	r18, 0x75	; 117
    1c2a:	31 40       	sbci	r19, 0x01	; 1
    1c2c:	41 f4       	brne	.+16     	; 0x1c3e <u8g_UndoScale+0x1c>
    1c2e:	20 91 77 01 	lds	r18, 0x0177
    1c32:	30 91 78 01 	lds	r19, 0x0178
    1c36:	fc 01       	movw	r30, r24
    1c38:	33 83       	std	Z+3, r19	; 0x03
    1c3a:	22 83       	std	Z+2, r18	; 0x02
    1c3c:	c6 cc       	rjmp	.-1652   	; 0x15ca <u8g_UpdateDimension>
    1c3e:	08 95       	ret

00001c40 <u8g_SetScale2x2>:
    1c40:	fc 01       	movw	r30, r24
    1c42:	22 81       	ldd	r18, Z+2	; 0x02
    1c44:	33 81       	ldd	r19, Z+3	; 0x03
    1c46:	f1 e0       	ldi	r31, 0x01	; 1
    1c48:	25 37       	cpi	r18, 0x75	; 117
    1c4a:	3f 07       	cpc	r19, r31
    1c4c:	49 f0       	breq	.+18     	; 0x1c60 <u8g_SetScale2x2+0x20>
    1c4e:	30 93 78 01 	sts	0x0178, r19
    1c52:	20 93 77 01 	sts	0x0177, r18
    1c56:	25 e7       	ldi	r18, 0x75	; 117
    1c58:	31 e0       	ldi	r19, 0x01	; 1
    1c5a:	fc 01       	movw	r30, r24
    1c5c:	33 83       	std	Z+3, r19	; 0x03
    1c5e:	22 83       	std	Z+2, r18	; 0x02
    1c60:	20 e5       	ldi	r18, 0x50	; 80
    1c62:	3d e0       	ldi	r19, 0x0D	; 13
    1c64:	30 93 76 01 	sts	0x0176, r19
    1c68:	20 93 75 01 	sts	0x0175, r18
    1c6c:	ae cc       	rjmp	.-1700   	; 0x15ca <u8g_UpdateDimension>

00001c6e <u8g_state_dummy_cb>:
    1c6e:	08 95       	ret

00001c70 <mpu6050_readBytes.part.0>:
    1c70:	8f 92       	push	r8
    1c72:	9f 92       	push	r9
    1c74:	af 92       	push	r10
    1c76:	bf 92       	push	r11
    1c78:	cf 92       	push	r12
    1c7a:	df 92       	push	r13
    1c7c:	ff 92       	push	r15
    1c7e:	0f 93       	push	r16
    1c80:	1f 93       	push	r17
    1c82:	cf 93       	push	r28
    1c84:	df 93       	push	r29
    1c86:	00 d0       	rcall	.+0      	; 0x1c88 <mpu6050_readBytes.part.0+0x18>
    1c88:	cd b7       	in	r28, 0x3d	; 61
    1c8a:	de b7       	in	r29, 0x3e	; 62
    1c8c:	18 2f       	mov	r17, r24
    1c8e:	f6 2e       	mov	r15, r22
    1c90:	80 ed       	ldi	r24, 0xD0	; 208
    1c92:	49 83       	std	Y+1, r20	; 0x01
    1c94:	5a 83       	std	Y+2, r21	; 0x02
    1c96:	36 d3       	rcall	.+1644   	; 0x2304 <i2c_start>
    1c98:	81 2f       	mov	r24, r17
    1c9a:	80 d3       	rcall	.+1792   	; 0x239c <i2c_write>
    1c9c:	85 e3       	ldi	r24, 0x35	; 53
    1c9e:	8a 95       	dec	r24
    1ca0:	f1 f7       	brne	.-4      	; 0x1c9e <mpu6050_readBytes.part.0+0x2e>
    1ca2:	00 00       	nop
    1ca4:	81 ed       	ldi	r24, 0xD1	; 209
    1ca6:	2e d3       	rcall	.+1628   	; 0x2304 <i2c_start>
    1ca8:	49 81       	ldd	r20, Y+1	; 0x01
    1caa:	84 2e       	mov	r8, r20
    1cac:	5a 81       	ldd	r21, Y+2	; 0x02
    1cae:	95 2e       	mov	r9, r21
    1cb0:	cf 2c       	mov	r12, r15
    1cb2:	d1 2c       	mov	r13, r1
    1cb4:	00 e0       	ldi	r16, 0x00	; 0
    1cb6:	10 e0       	ldi	r17, 0x00	; 0
    1cb8:	56 01       	movw	r10, r12
    1cba:	e1 e0       	ldi	r30, 0x01	; 1
    1cbc:	ae 1a       	sub	r10, r30
    1cbe:	b1 08       	sbc	r11, r1
    1cc0:	0c 15       	cp	r16, r12
    1cc2:	1d 05       	cpc	r17, r13
    1cc4:	71 f0       	breq	.+28     	; 0x1ce2 <mpu6050_readBytes.part.0+0x72>
    1cc6:	0a 15       	cp	r16, r10
    1cc8:	1b 05       	cpc	r17, r11
    1cca:	11 f4       	brne	.+4      	; 0x1cd0 <mpu6050_readBytes.part.0+0x60>
    1ccc:	a0 d3       	rcall	.+1856   	; 0x240e <i2c_readNak>
    1cce:	01 c0       	rjmp	.+2      	; 0x1cd2 <mpu6050_readBytes.part.0+0x62>
    1cd0:	85 d3       	rcall	.+1802   	; 0x23dc <i2c_readAck>
    1cd2:	f4 01       	movw	r30, r8
    1cd4:	80 83       	st	Z, r24
    1cd6:	0f 5f       	subi	r16, 0xFF	; 255
    1cd8:	1f 4f       	sbci	r17, 0xFF	; 255
    1cda:	ff ef       	ldi	r31, 0xFF	; 255
    1cdc:	8f 1a       	sub	r8, r31
    1cde:	9f 0a       	sbc	r9, r31
    1ce0:	ef cf       	rjmp	.-34     	; 0x1cc0 <mpu6050_readBytes.part.0+0x50>
    1ce2:	4d d3       	rcall	.+1690   	; 0x237e <i2c_stop>
    1ce4:	8f 2d       	mov	r24, r15
    1ce6:	0f 90       	pop	r0
    1ce8:	0f 90       	pop	r0
    1cea:	df 91       	pop	r29
    1cec:	cf 91       	pop	r28
    1cee:	1f 91       	pop	r17
    1cf0:	0f 91       	pop	r16
    1cf2:	ff 90       	pop	r15
    1cf4:	df 90       	pop	r13
    1cf6:	cf 90       	pop	r12
    1cf8:	bf 90       	pop	r11
    1cfa:	af 90       	pop	r10
    1cfc:	9f 90       	pop	r9
    1cfe:	8f 90       	pop	r8
    1d00:	08 95       	ret

00001d02 <mpu6050_writeBytes.part.1>:
    1d02:	a2 e0       	ldi	r26, 0x02	; 2
    1d04:	b0 e0       	ldi	r27, 0x00	; 0
    1d06:	e6 e8       	ldi	r30, 0x86	; 134
    1d08:	fe e0       	ldi	r31, 0x0E	; 14
    1d0a:	c8 c3       	rjmp	.+1936   	; 0x249c <__prologue_saves__+0x18>
    1d0c:	08 2f       	mov	r16, r24
    1d0e:	16 2f       	mov	r17, r22
    1d10:	80 ed       	ldi	r24, 0xD0	; 208
    1d12:	49 83       	std	Y+1, r20	; 0x01
    1d14:	5a 83       	std	Y+2, r21	; 0x02
    1d16:	f6 d2       	rcall	.+1516   	; 0x2304 <i2c_start>
    1d18:	80 2f       	mov	r24, r16
    1d1a:	40 d3       	rcall	.+1664   	; 0x239c <i2c_write>
    1d1c:	49 81       	ldd	r20, Y+1	; 0x01
    1d1e:	04 2f       	mov	r16, r20
    1d20:	e4 2e       	mov	r14, r20
    1d22:	5a 81       	ldd	r21, Y+2	; 0x02
    1d24:	f5 2e       	mov	r15, r21
    1d26:	8e 2d       	mov	r24, r14
    1d28:	80 1b       	sub	r24, r16
    1d2a:	81 17       	cp	r24, r17
    1d2c:	28 f4       	brcc	.+10     	; 0x1d38 <mpu6050_writeBytes.part.1+0x36>
    1d2e:	f7 01       	movw	r30, r14
    1d30:	81 91       	ld	r24, Z+
    1d32:	7f 01       	movw	r14, r30
    1d34:	33 d3       	rcall	.+1638   	; 0x239c <i2c_write>
    1d36:	f7 cf       	rjmp	.-18     	; 0x1d26 <mpu6050_writeBytes.part.1+0x24>
    1d38:	22 d3       	rcall	.+1604   	; 0x237e <i2c_stop>
    1d3a:	22 96       	adiw	r28, 0x02	; 2
    1d3c:	e6 e0       	ldi	r30, 0x06	; 6
    1d3e:	ca c3       	rjmp	.+1940   	; 0x24d4 <__epilogue_restores__+0x18>

00001d40 <mpu6050_readBytes>:
    1d40:	66 23       	and	r22, r22
    1d42:	09 f0       	breq	.+2      	; 0x1d46 <mpu6050_readBytes+0x6>
    1d44:	95 cf       	rjmp	.-214    	; 0x1c70 <mpu6050_readBytes.part.0>
    1d46:	80 e0       	ldi	r24, 0x00	; 0
    1d48:	08 95       	ret

00001d4a <mpu6050_readByte>:
    1d4a:	ab 01       	movw	r20, r22
    1d4c:	61 e0       	ldi	r22, 0x01	; 1
    1d4e:	90 cf       	rjmp	.-224    	; 0x1c70 <mpu6050_readBytes.part.0>

00001d50 <mpu6050_writeByte>:
    1d50:	a1 e0       	ldi	r26, 0x01	; 1
    1d52:	b0 e0       	ldi	r27, 0x00	; 0
    1d54:	ed ea       	ldi	r30, 0xAD	; 173
    1d56:	fe e0       	ldi	r31, 0x0E	; 14
    1d58:	a5 c3       	rjmp	.+1866   	; 0x24a4 <__prologue_saves__+0x20>
    1d5a:	69 83       	std	Y+1, r22	; 0x01
    1d5c:	ae 01       	movw	r20, r28
    1d5e:	4f 5f       	subi	r20, 0xFF	; 255
    1d60:	5f 4f       	sbci	r21, 0xFF	; 255
    1d62:	61 e0       	ldi	r22, 0x01	; 1
    1d64:	ce df       	rcall	.-100    	; 0x1d02 <mpu6050_writeBytes.part.1>
    1d66:	21 96       	adiw	r28, 0x01	; 1
    1d68:	e2 e0       	ldi	r30, 0x02	; 2
    1d6a:	b8 c3       	rjmp	.+1904   	; 0x24dc <__epilogue_restores__+0x20>

00001d6c <mpu6050_writeBits.part.3>:
    1d6c:	a2 e0       	ldi	r26, 0x02	; 2
    1d6e:	b0 e0       	ldi	r27, 0x00	; 0
    1d70:	eb eb       	ldi	r30, 0xBB	; 187
    1d72:	fe e0       	ldi	r31, 0x0E	; 14
    1d74:	94 c3       	rjmp	.+1832   	; 0x249e <__prologue_saves__+0x1a>
    1d76:	08 2f       	mov	r16, r24
    1d78:	16 2f       	mov	r17, r22
    1d7a:	f4 2e       	mov	r15, r20
    1d7c:	19 82       	std	Y+1, r1	; 0x01
    1d7e:	be 01       	movw	r22, r28
    1d80:	6f 5f       	subi	r22, 0xFF	; 255
    1d82:	7f 4f       	sbci	r23, 0xFF	; 255
    1d84:	2a 83       	std	Y+2, r18	; 0x02
    1d86:	e1 df       	rcall	.-62     	; 0x1d4a <mpu6050_readByte>
    1d88:	2a 81       	ldd	r18, Y+2	; 0x02
    1d8a:	88 23       	and	r24, r24
    1d8c:	01 f1       	breq	.+64     	; 0x1dce <mpu6050_writeBits.part.3+0x62>
    1d8e:	e1 2f       	mov	r30, r17
    1d90:	f0 e0       	ldi	r31, 0x00	; 0
    1d92:	ef 19       	sub	r30, r15
    1d94:	f1 09       	sbc	r31, r1
    1d96:	31 96       	adiw	r30, 0x01	; 1
    1d98:	41 e0       	ldi	r20, 0x01	; 1
    1d9a:	50 e0       	ldi	r21, 0x00	; 0
    1d9c:	02 c0       	rjmp	.+4      	; 0x1da2 <mpu6050_writeBits.part.3+0x36>
    1d9e:	44 0f       	add	r20, r20
    1da0:	55 1f       	adc	r21, r21
    1da2:	fa 94       	dec	r15
    1da4:	e2 f7       	brpl	.-8      	; 0x1d9e <mpu6050_writeBits.part.3+0x32>
    1da6:	41 50       	subi	r20, 0x01	; 1
    1da8:	51 09       	sbc	r21, r1
    1daa:	0e 2e       	mov	r0, r30
    1dac:	01 c0       	rjmp	.+2      	; 0x1db0 <mpu6050_writeBits.part.3+0x44>
    1dae:	44 0f       	add	r20, r20
    1db0:	0a 94       	dec	r0
    1db2:	ea f7       	brpl	.-6      	; 0x1dae <mpu6050_writeBits.part.3+0x42>
    1db4:	01 c0       	rjmp	.+2      	; 0x1db8 <mpu6050_writeBits.part.3+0x4c>
    1db6:	22 0f       	add	r18, r18
    1db8:	ea 95       	dec	r30
    1dba:	ea f7       	brpl	.-6      	; 0x1db6 <mpu6050_writeBits.part.3+0x4a>
    1dbc:	64 2f       	mov	r22, r20
    1dbe:	60 95       	com	r22
    1dc0:	89 81       	ldd	r24, Y+1	; 0x01
    1dc2:	68 23       	and	r22, r24
    1dc4:	42 23       	and	r20, r18
    1dc6:	64 2b       	or	r22, r20
    1dc8:	69 83       	std	Y+1, r22	; 0x01
    1dca:	80 2f       	mov	r24, r16
    1dcc:	c1 df       	rcall	.-126    	; 0x1d50 <mpu6050_writeByte>
    1dce:	22 96       	adiw	r28, 0x02	; 2
    1dd0:	e5 e0       	ldi	r30, 0x05	; 5
    1dd2:	81 c3       	rjmp	.+1794   	; 0x24d6 <__epilogue_restores__+0x1a>

00001dd4 <mpu6050_writeBit>:
    1dd4:	a2 e0       	ldi	r26, 0x02	; 2
    1dd6:	b0 e0       	ldi	r27, 0x00	; 0
    1dd8:	ef ee       	ldi	r30, 0xEF	; 239
    1dda:	fe e0       	ldi	r31, 0x0E	; 14
    1ddc:	61 c3       	rjmp	.+1730   	; 0x24a0 <__prologue_saves__+0x1c>
    1dde:	18 2f       	mov	r17, r24
    1de0:	06 2f       	mov	r16, r22
    1de2:	be 01       	movw	r22, r28
    1de4:	6f 5f       	subi	r22, 0xFF	; 255
    1de6:	7f 4f       	sbci	r23, 0xFF	; 255
    1de8:	4a 83       	std	Y+2, r20	; 0x02
    1dea:	af df       	rcall	.-162    	; 0x1d4a <mpu6050_readByte>
    1dec:	99 81       	ldd	r25, Y+1	; 0x01
    1dee:	4a 81       	ldd	r20, Y+2	; 0x02
    1df0:	44 23       	and	r20, r20
    1df2:	49 f0       	breq	.+18     	; 0x1e06 <mpu6050_writeBit+0x32>
    1df4:	61 e0       	ldi	r22, 0x01	; 1
    1df6:	70 e0       	ldi	r23, 0x00	; 0
    1df8:	00 2e       	mov	r0, r16
    1dfa:	01 c0       	rjmp	.+2      	; 0x1dfe <mpu6050_writeBit+0x2a>
    1dfc:	66 0f       	add	r22, r22
    1dfe:	0a 94       	dec	r0
    1e00:	ea f7       	brpl	.-6      	; 0x1dfc <mpu6050_writeBit+0x28>
    1e02:	69 2b       	or	r22, r25
    1e04:	09 c0       	rjmp	.+18     	; 0x1e18 <mpu6050_writeBit+0x44>
    1e06:	21 e0       	ldi	r18, 0x01	; 1
    1e08:	30 e0       	ldi	r19, 0x00	; 0
    1e0a:	b9 01       	movw	r22, r18
    1e0c:	01 c0       	rjmp	.+2      	; 0x1e10 <mpu6050_writeBit+0x3c>
    1e0e:	66 0f       	add	r22, r22
    1e10:	0a 95       	dec	r16
    1e12:	ea f7       	brpl	.-6      	; 0x1e0e <mpu6050_writeBit+0x3a>
    1e14:	60 95       	com	r22
    1e16:	69 23       	and	r22, r25
    1e18:	69 83       	std	Y+1, r22	; 0x01
    1e1a:	81 2f       	mov	r24, r17
    1e1c:	99 df       	rcall	.-206    	; 0x1d50 <mpu6050_writeByte>
    1e1e:	22 96       	adiw	r28, 0x02	; 2
    1e20:	e4 e0       	ldi	r30, 0x04	; 4
    1e22:	5a c3       	rjmp	.+1716   	; 0x24d8 <__epilogue_restores__+0x1c>

00001e24 <mpu6050_setSleepDisabled>:
    1e24:	40 e0       	ldi	r20, 0x00	; 0
    1e26:	66 e0       	ldi	r22, 0x06	; 6
    1e28:	8b e6       	ldi	r24, 0x6B	; 107
    1e2a:	d4 cf       	rjmp	.-88     	; 0x1dd4 <mpu6050_writeBit>

00001e2c <mpu6050_init>:
    1e2c:	65 d2       	rcall	.+1226   	; 0x22f8 <i2c_init>
    1e2e:	25 e3       	ldi	r18, 0x35	; 53
    1e30:	2a 95       	dec	r18
    1e32:	f1 f7       	brne	.-4      	; 0x1e30 <mpu6050_init+0x4>
    1e34:	00 00       	nop
    1e36:	8f ef       	ldi	r24, 0xFF	; 255
	#else
		//round up by default
		__ticks_dc = (uint32_t)(ceil(fabs(__tmp)));
	#endif

	__builtin_avr_delay_cycles(__ticks_dc);
    1e38:	91 ee       	ldi	r25, 0xE1	; 225
    1e3a:	24 e0       	ldi	r18, 0x04	; 4
    1e3c:	81 50       	subi	r24, 0x01	; 1
    1e3e:	90 40       	sbci	r25, 0x00	; 0
    1e40:	20 40       	sbci	r18, 0x00	; 0
    1e42:	e1 f7       	brne	.-8      	; 0x1e3c <mpu6050_init+0x10>
    1e44:	00 c0       	rjmp	.+0      	; 0x1e46 <mpu6050_init+0x1a>
    1e46:	00 00       	nop
    1e48:	ed df       	rcall	.-38     	; 0x1e24 <mpu6050_setSleepDisabled>
    1e4a:	8f e3       	ldi	r24, 0x3F	; 63
    1e4c:	9c e9       	ldi	r25, 0x9C	; 156
    1e4e:	01 97       	sbiw	r24, 0x01	; 1
    1e50:	f1 f7       	brne	.-4      	; 0x1e4e <mpu6050_init+0x22>
    1e52:	00 c0       	rjmp	.+0      	; 0x1e54 <mpu6050_init+0x28>
    1e54:	00 00       	nop
    1e56:	21 e0       	ldi	r18, 0x01	; 1
    1e58:	43 e0       	ldi	r20, 0x03	; 3
    1e5a:	62 e0       	ldi	r22, 0x02	; 2
    1e5c:	8b e6       	ldi	r24, 0x6B	; 107
    1e5e:	86 df       	rcall	.-244    	; 0x1d6c <mpu6050_writeBits.part.3>
    1e60:	23 e0       	ldi	r18, 0x03	; 3
    1e62:	43 e0       	ldi	r20, 0x03	; 3
    1e64:	62 e0       	ldi	r22, 0x02	; 2
    1e66:	8a e1       	ldi	r24, 0x1A	; 26
    1e68:	81 df       	rcall	.-254    	; 0x1d6c <mpu6050_writeBits.part.3>
    1e6a:	64 e0       	ldi	r22, 0x04	; 4
    1e6c:	89 e1       	ldi	r24, 0x19	; 25
    1e6e:	70 df       	rcall	.-288    	; 0x1d50 <mpu6050_writeByte>
    1e70:	23 e0       	ldi	r18, 0x03	; 3
    1e72:	42 e0       	ldi	r20, 0x02	; 2
    1e74:	64 e0       	ldi	r22, 0x04	; 4
    1e76:	8b e1       	ldi	r24, 0x1B	; 27
    1e78:	79 df       	rcall	.-270    	; 0x1d6c <mpu6050_writeBits.part.3>
    1e7a:	20 e0       	ldi	r18, 0x00	; 0
    1e7c:	42 e0       	ldi	r20, 0x02	; 2
    1e7e:	64 e0       	ldi	r22, 0x04	; 4
    1e80:	8c e1       	ldi	r24, 0x1C	; 28
    1e82:	74 cf       	rjmp	.-280    	; 0x1d6c <mpu6050_writeBits.part.3>

00001e84 <mpu6050_getRawData>:
    1e84:	a0 e0       	ldi	r26, 0x00	; 0
    1e86:	b0 e0       	ldi	r27, 0x00	; 0
    1e88:	e7 e4       	ldi	r30, 0x47	; 71
    1e8a:	ff e0       	ldi	r31, 0x0F	; 15
    1e8c:	01 c3       	rjmp	.+1538   	; 0x2490 <__prologue_saves__+0xc>
    1e8e:	5c 01       	movw	r10, r24
    1e90:	4b 01       	movw	r8, r22
    1e92:	6a 01       	movw	r12, r20
    1e94:	e9 01       	movw	r28, r18
    1e96:	49 e8       	ldi	r20, 0x89	; 137
    1e98:	52 e0       	ldi	r21, 0x02	; 2
    1e9a:	6e e0       	ldi	r22, 0x0E	; 14
    1e9c:	8b e3       	ldi	r24, 0x3B	; 59
    1e9e:	50 df       	rcall	.-352    	; 0x1d40 <mpu6050_readBytes>
    1ea0:	e9 e8       	ldi	r30, 0x89	; 137
    1ea2:	f2 e0       	ldi	r31, 0x02	; 2
    1ea4:	20 81       	ld	r18, Z
    1ea6:	81 81       	ldd	r24, Z+1	; 0x01
    1ea8:	90 e0       	ldi	r25, 0x00	; 0
    1eaa:	92 2b       	or	r25, r18
    1eac:	d5 01       	movw	r26, r10
    1eae:	8d 93       	st	X+, r24
    1eb0:	9c 93       	st	X, r25
    1eb2:	22 81       	ldd	r18, Z+2	; 0x02
    1eb4:	83 81       	ldd	r24, Z+3	; 0x03
    1eb6:	90 e0       	ldi	r25, 0x00	; 0
    1eb8:	92 2b       	or	r25, r18
    1eba:	d4 01       	movw	r26, r8
    1ebc:	8d 93       	st	X+, r24
    1ebe:	9c 93       	st	X, r25
    1ec0:	24 81       	ldd	r18, Z+4	; 0x04
    1ec2:	85 81       	ldd	r24, Z+5	; 0x05
    1ec4:	90 e0       	ldi	r25, 0x00	; 0
    1ec6:	92 2b       	or	r25, r18
    1ec8:	d6 01       	movw	r26, r12
    1eca:	8d 93       	st	X+, r24
    1ecc:	9c 93       	st	X, r25
    1ece:	20 85       	ldd	r18, Z+8	; 0x08
    1ed0:	81 85       	ldd	r24, Z+9	; 0x09
    1ed2:	90 e0       	ldi	r25, 0x00	; 0
    1ed4:	92 2b       	or	r25, r18
    1ed6:	99 83       	std	Y+1, r25	; 0x01
    1ed8:	88 83       	st	Y, r24
    1eda:	22 85       	ldd	r18, Z+10	; 0x0a
    1edc:	83 85       	ldd	r24, Z+11	; 0x0b
    1ede:	90 e0       	ldi	r25, 0x00	; 0
    1ee0:	92 2b       	or	r25, r18
    1ee2:	d8 01       	movw	r26, r16
    1ee4:	8d 93       	st	X+, r24
    1ee6:	9c 93       	st	X, r25
    1ee8:	24 85       	ldd	r18, Z+12	; 0x0c
    1eea:	85 85       	ldd	r24, Z+13	; 0x0d
    1eec:	90 e0       	ldi	r25, 0x00	; 0
    1eee:	92 2b       	or	r25, r18
    1ef0:	f7 01       	movw	r30, r14
    1ef2:	91 83       	std	Z+1, r25	; 0x01
    1ef4:	80 83       	st	Z, r24
    1ef6:	cd b7       	in	r28, 0x3d	; 61
    1ef8:	de b7       	in	r29, 0x3e	; 62
    1efa:	ec e0       	ldi	r30, 0x0C	; 12
    1efc:	e5 c2       	rjmp	.+1482   	; 0x24c8 <__epilogue_restores__+0xc>

00001efe <mpu6050_getConvData>:
    1efe:	ac e0       	ldi	r26, 0x0C	; 12
    1f00:	b0 e0       	ldi	r27, 0x00	; 0
    1f02:	e4 e8       	ldi	r30, 0x84	; 132
    1f04:	ff e0       	ldi	r31, 0x0F	; 15
    1f06:	be c2       	rjmp	.+1404   	; 0x2484 <__prologue_saves__>
    1f08:	3c 01       	movw	r6, r24
    1f0a:	4b 01       	movw	r8, r22
    1f0c:	5a 01       	movw	r10, r20
    1f0e:	69 01       	movw	r12, r18
    1f10:	28 01       	movw	r4, r16
    1f12:	17 01       	movw	r2, r14
    1f14:	1c 86       	std	Y+12, r1	; 0x0c
    1f16:	1b 86       	std	Y+11, r1	; 0x0b
    1f18:	1a 86       	std	Y+10, r1	; 0x0a
    1f1a:	19 86       	std	Y+9, r1	; 0x09
    1f1c:	18 86       	std	Y+8, r1	; 0x08
    1f1e:	1f 82       	std	Y+7, r1	; 0x07
    1f20:	1e 82       	std	Y+6, r1	; 0x06
    1f22:	1d 82       	std	Y+5, r1	; 0x05
    1f24:	1c 82       	std	Y+4, r1	; 0x04
    1f26:	1b 82       	std	Y+3, r1	; 0x03
    1f28:	1a 82       	std	Y+2, r1	; 0x02
    1f2a:	19 82       	std	Y+1, r1	; 0x01
    1f2c:	ce 01       	movw	r24, r28
    1f2e:	01 96       	adiw	r24, 0x01	; 1
    1f30:	7c 01       	movw	r14, r24
    1f32:	8e 01       	movw	r16, r28
    1f34:	0d 5f       	subi	r16, 0xFD	; 253
    1f36:	1f 4f       	sbci	r17, 0xFF	; 255
    1f38:	9e 01       	movw	r18, r28
    1f3a:	2b 5f       	subi	r18, 0xFB	; 251
    1f3c:	3f 4f       	sbci	r19, 0xFF	; 255
    1f3e:	ae 01       	movw	r20, r28
    1f40:	49 5f       	subi	r20, 0xF9	; 249
    1f42:	5f 4f       	sbci	r21, 0xFF	; 255
    1f44:	be 01       	movw	r22, r28
    1f46:	67 5f       	subi	r22, 0xF7	; 247
    1f48:	7f 4f       	sbci	r23, 0xFF	; 255
    1f4a:	0a 96       	adiw	r24, 0x0a	; 10
    1f4c:	9b df       	rcall	.-202    	; 0x1e84 <mpu6050_getRawData>
    1f4e:	6b 85       	ldd	r22, Y+11	; 0x0b
    1f50:	7c 85       	ldd	r23, Y+12	; 0x0c
    1f52:	07 2e       	mov	r0, r23
    1f54:	00 0c       	add	r0, r0
    1f56:	88 0b       	sbc	r24, r24
    1f58:	99 0b       	sbc	r25, r25
    1f5a:	88 d3       	rcall	.+1808   	; 0x266c <__floatsisf>
    1f5c:	20 e0       	ldi	r18, 0x00	; 0
    1f5e:	30 e0       	ldi	r19, 0x00	; 0
    1f60:	40 e8       	ldi	r20, 0x80	; 128
    1f62:	58 e3       	ldi	r21, 0x38	; 56
    1f64:	0f d4       	rcall	.+2078   	; 0x2784 <__mulsf3>
    1f66:	f3 01       	movw	r30, r6
    1f68:	60 83       	st	Z, r22
    1f6a:	71 83       	std	Z+1, r23	; 0x01
    1f6c:	82 83       	std	Z+2, r24	; 0x02
    1f6e:	93 83       	std	Z+3, r25	; 0x03
    1f70:	69 85       	ldd	r22, Y+9	; 0x09
    1f72:	7a 85       	ldd	r23, Y+10	; 0x0a
    1f74:	07 2e       	mov	r0, r23
    1f76:	00 0c       	add	r0, r0
    1f78:	88 0b       	sbc	r24, r24
    1f7a:	99 0b       	sbc	r25, r25
    1f7c:	77 d3       	rcall	.+1774   	; 0x266c <__floatsisf>
    1f7e:	20 e0       	ldi	r18, 0x00	; 0
    1f80:	30 e0       	ldi	r19, 0x00	; 0
    1f82:	40 e8       	ldi	r20, 0x80	; 128
    1f84:	58 e3       	ldi	r21, 0x38	; 56
    1f86:	fe d3       	rcall	.+2044   	; 0x2784 <__mulsf3>
    1f88:	f4 01       	movw	r30, r8
    1f8a:	60 83       	st	Z, r22
    1f8c:	71 83       	std	Z+1, r23	; 0x01
    1f8e:	82 83       	std	Z+2, r24	; 0x02
    1f90:	93 83       	std	Z+3, r25	; 0x03
    1f92:	6f 81       	ldd	r22, Y+7	; 0x07
    1f94:	78 85       	ldd	r23, Y+8	; 0x08
    1f96:	07 2e       	mov	r0, r23
    1f98:	00 0c       	add	r0, r0
    1f9a:	88 0b       	sbc	r24, r24
    1f9c:	99 0b       	sbc	r25, r25
    1f9e:	66 d3       	rcall	.+1740   	; 0x266c <__floatsisf>
    1fa0:	20 e0       	ldi	r18, 0x00	; 0
    1fa2:	30 e0       	ldi	r19, 0x00	; 0
    1fa4:	40 e8       	ldi	r20, 0x80	; 128
    1fa6:	58 e3       	ldi	r21, 0x38	; 56
    1fa8:	ed d3       	rcall	.+2010   	; 0x2784 <__mulsf3>
    1faa:	f5 01       	movw	r30, r10
    1fac:	60 83       	st	Z, r22
    1fae:	71 83       	std	Z+1, r23	; 0x01
    1fb0:	82 83       	std	Z+2, r24	; 0x02
    1fb2:	93 83       	std	Z+3, r25	; 0x03
    1fb4:	6d 81       	ldd	r22, Y+5	; 0x05
    1fb6:	7e 81       	ldd	r23, Y+6	; 0x06
    1fb8:	66 5d       	subi	r22, 0xD6	; 214
    1fba:	7f 4f       	sbci	r23, 0xFF	; 255
    1fbc:	07 2e       	mov	r0, r23
    1fbe:	00 0c       	add	r0, r0
    1fc0:	88 0b       	sbc	r24, r24
    1fc2:	99 0b       	sbc	r25, r25
    1fc4:	53 d3       	rcall	.+1702   	; 0x266c <__floatsisf>
    1fc6:	23 e3       	ldi	r18, 0x33	; 51
    1fc8:	33 e3       	ldi	r19, 0x33	; 51
    1fca:	43 e8       	ldi	r20, 0x83	; 131
    1fcc:	51 e4       	ldi	r21, 0x41	; 65
    1fce:	b3 d2       	rcall	.+1382   	; 0x2536 <__divsf3>
    1fd0:	f6 01       	movw	r30, r12
    1fd2:	60 83       	st	Z, r22
    1fd4:	71 83       	std	Z+1, r23	; 0x01
    1fd6:	82 83       	std	Z+2, r24	; 0x02
    1fd8:	93 83       	std	Z+3, r25	; 0x03
    1fda:	6b 81       	ldd	r22, Y+3	; 0x03
    1fdc:	7c 81       	ldd	r23, Y+4	; 0x04
    1fde:	69 50       	subi	r22, 0x09	; 9
    1fe0:	71 09       	sbc	r23, r1
    1fe2:	07 2e       	mov	r0, r23
    1fe4:	00 0c       	add	r0, r0
    1fe6:	88 0b       	sbc	r24, r24
    1fe8:	99 0b       	sbc	r25, r25
    1fea:	40 d3       	rcall	.+1664   	; 0x266c <__floatsisf>
    1fec:	23 e3       	ldi	r18, 0x33	; 51
    1fee:	33 e3       	ldi	r19, 0x33	; 51
    1ff0:	43 e8       	ldi	r20, 0x83	; 131
    1ff2:	51 e4       	ldi	r21, 0x41	; 65
    1ff4:	a0 d2       	rcall	.+1344   	; 0x2536 <__divsf3>
    1ff6:	f2 01       	movw	r30, r4
    1ff8:	60 83       	st	Z, r22
    1ffa:	71 83       	std	Z+1, r23	; 0x01
    1ffc:	82 83       	std	Z+2, r24	; 0x02
    1ffe:	93 83       	std	Z+3, r25	; 0x03
    2000:	69 81       	ldd	r22, Y+1	; 0x01
    2002:	7a 81       	ldd	r23, Y+2	; 0x02
    2004:	63 5e       	subi	r22, 0xE3	; 227
    2006:	7f 4f       	sbci	r23, 0xFF	; 255
    2008:	07 2e       	mov	r0, r23
    200a:	00 0c       	add	r0, r0
    200c:	88 0b       	sbc	r24, r24
    200e:	99 0b       	sbc	r25, r25
    2010:	2d d3       	rcall	.+1626   	; 0x266c <__floatsisf>
    2012:	23 e3       	ldi	r18, 0x33	; 51
    2014:	33 e3       	ldi	r19, 0x33	; 51
    2016:	43 e8       	ldi	r20, 0x83	; 131
    2018:	51 e4       	ldi	r21, 0x41	; 65
    201a:	8d d2       	rcall	.+1306   	; 0x2536 <__divsf3>
    201c:	f1 01       	movw	r30, r2
    201e:	60 83       	st	Z, r22
    2020:	71 83       	std	Z+1, r23	; 0x01
    2022:	82 83       	std	Z+2, r24	; 0x02
    2024:	93 83       	std	Z+3, r25	; 0x03
    2026:	2c 96       	adiw	r28, 0x0c	; 12
    2028:	e2 e1       	ldi	r30, 0x12	; 18
    202a:	48 c2       	rjmp	.+1168   	; 0x24bc <__epilogue_restores__>

0000202c <u8g_InitCom>:
    202c:	db 01       	movw	r26, r22
    202e:	14 96       	adiw	r26, 0x04	; 4
    2030:	ed 91       	ld	r30, X+
    2032:	fc 91       	ld	r31, X
    2034:	15 97       	sbiw	r26, 0x05	; 5
    2036:	20 e0       	ldi	r18, 0x00	; 0
    2038:	30 e0       	ldi	r19, 0x00	; 0
    203a:	61 e0       	ldi	r22, 0x01	; 1
    203c:	09 95       	icall
    203e:	08 95       	ret

00002040 <u8g_SetChipSelect>:
    2040:	db 01       	movw	r26, r22
    2042:	14 96       	adiw	r26, 0x04	; 4
    2044:	ed 91       	ld	r30, X+
    2046:	fc 91       	ld	r31, X
    2048:	15 97       	sbiw	r26, 0x05	; 5
    204a:	20 e0       	ldi	r18, 0x00	; 0
    204c:	30 e0       	ldi	r19, 0x00	; 0
    204e:	63 e0       	ldi	r22, 0x03	; 3
    2050:	09 95       	icall
    2052:	08 95       	ret

00002054 <u8g_SetResetLow>:
    2054:	db 01       	movw	r26, r22
    2056:	14 96       	adiw	r26, 0x04	; 4
    2058:	ed 91       	ld	r30, X+
    205a:	fc 91       	ld	r31, X
    205c:	15 97       	sbiw	r26, 0x05	; 5
    205e:	20 e0       	ldi	r18, 0x00	; 0
    2060:	30 e0       	ldi	r19, 0x00	; 0
    2062:	40 e0       	ldi	r20, 0x00	; 0
    2064:	64 e0       	ldi	r22, 0x04	; 4
    2066:	09 95       	icall
    2068:	08 95       	ret

0000206a <u8g_SetResetHigh>:
    206a:	db 01       	movw	r26, r22
    206c:	14 96       	adiw	r26, 0x04	; 4
    206e:	ed 91       	ld	r30, X+
    2070:	fc 91       	ld	r31, X
    2072:	15 97       	sbiw	r26, 0x05	; 5
    2074:	20 e0       	ldi	r18, 0x00	; 0
    2076:	30 e0       	ldi	r19, 0x00	; 0
    2078:	41 e0       	ldi	r20, 0x01	; 1
    207a:	64 e0       	ldi	r22, 0x04	; 4
    207c:	09 95       	icall
    207e:	08 95       	ret

00002080 <u8g_SetAddress>:
    2080:	db 01       	movw	r26, r22
    2082:	14 96       	adiw	r26, 0x04	; 4
    2084:	ed 91       	ld	r30, X+
    2086:	fc 91       	ld	r31, X
    2088:	15 97       	sbiw	r26, 0x05	; 5
    208a:	20 e0       	ldi	r18, 0x00	; 0
    208c:	30 e0       	ldi	r19, 0x00	; 0
    208e:	62 e0       	ldi	r22, 0x02	; 2
    2090:	09 95       	icall
    2092:	08 95       	ret

00002094 <u8g_WriteByte>:
    2094:	db 01       	movw	r26, r22
    2096:	14 96       	adiw	r26, 0x04	; 4
    2098:	ed 91       	ld	r30, X+
    209a:	fc 91       	ld	r31, X
    209c:	15 97       	sbiw	r26, 0x05	; 5
    209e:	20 e0       	ldi	r18, 0x00	; 0
    20a0:	30 e0       	ldi	r19, 0x00	; 0
    20a2:	65 e0       	ldi	r22, 0x05	; 5
    20a4:	09 95       	icall
    20a6:	08 95       	ret

000020a8 <u8g_WriteSequence>:
    20a8:	db 01       	movw	r26, r22
    20aa:	14 96       	adiw	r26, 0x04	; 4
    20ac:	ed 91       	ld	r30, X+
    20ae:	fc 91       	ld	r31, X
    20b0:	15 97       	sbiw	r26, 0x05	; 5
    20b2:	66 e0       	ldi	r22, 0x06	; 6
    20b4:	09 95       	icall
    20b6:	08 95       	ret

000020b8 <u8g_WriteEscSeqP>:
    20b8:	a0 e0       	ldi	r26, 0x00	; 0
    20ba:	b0 e0       	ldi	r27, 0x00	; 0
    20bc:	e1 e6       	ldi	r30, 0x61	; 97
    20be:	f0 e1       	ldi	r31, 0x10	; 16
    20c0:	eb c1       	rjmp	.+982    	; 0x2498 <__prologue_saves__+0x14>
    20c2:	8c 01       	movw	r16, r24
    20c4:	7b 01       	movw	r14, r22
    20c6:	6a 01       	movw	r12, r20
    20c8:	80 e0       	ldi	r24, 0x00	; 0
    20ca:	f6 01       	movw	r30, r12
    20cc:	c4 91       	lpm	r28, Z
    20ce:	81 11       	cpse	r24, r1
    20d0:	09 c0       	rjmp	.+18     	; 0x20e4 <u8g_WriteEscSeqP+0x2c>
    20d2:	cf 3f       	cpi	r28, 0xFF	; 255
    20d4:	c1 f1       	breq	.+112    	; 0x2146 <u8g_WriteEscSeqP+0x8e>
    20d6:	4c 2f       	mov	r20, r28
    20d8:	b7 01       	movw	r22, r14
    20da:	c8 01       	movw	r24, r16
    20dc:	db df       	rcall	.-74     	; 0x2094 <u8g_WriteByte>
    20de:	81 11       	cpse	r24, r1
    20e0:	2b c0       	rjmp	.+86     	; 0x2138 <u8g_WriteEscSeqP+0x80>
    20e2:	36 c0       	rjmp	.+108    	; 0x2150 <u8g_WriteEscSeqP+0x98>
    20e4:	cf 3f       	cpi	r28, 0xFF	; 255
    20e6:	11 f4       	brne	.+4      	; 0x20ec <u8g_WriteEscSeqP+0x34>
    20e8:	4f ef       	ldi	r20, 0xFF	; 255
    20ea:	f6 cf       	rjmp	.-20     	; 0x20d8 <u8g_WriteEscSeqP+0x20>
    20ec:	ce 3f       	cpi	r28, 0xFE	; 254
    20ee:	91 f1       	breq	.+100    	; 0x2154 <u8g_WriteEscSeqP+0x9c>
    20f0:	c0 3f       	cpi	r28, 0xF0	; 240
    20f2:	10 f5       	brcc	.+68     	; 0x2138 <u8g_WriteEscSeqP+0x80>
    20f4:	c0 3e       	cpi	r28, 0xE0	; 224
    20f6:	30 f0       	brcs	.+12     	; 0x2104 <u8g_WriteEscSeqP+0x4c>
    20f8:	4c 2f       	mov	r20, r28
    20fa:	4f 70       	andi	r20, 0x0F	; 15
    20fc:	b7 01       	movw	r22, r14
    20fe:	c8 01       	movw	r24, r16
    2100:	bf df       	rcall	.-130    	; 0x2080 <u8g_SetAddress>
    2102:	1a c0       	rjmp	.+52     	; 0x2138 <u8g_WriteEscSeqP+0x80>
    2104:	c0 3d       	cpi	r28, 0xD0	; 208
    2106:	30 f0       	brcs	.+12     	; 0x2114 <u8g_WriteEscSeqP+0x5c>
    2108:	4c 2f       	mov	r20, r28
    210a:	4f 70       	andi	r20, 0x0F	; 15
    210c:	b7 01       	movw	r22, r14
    210e:	c8 01       	movw	r24, r16
    2110:	97 df       	rcall	.-210    	; 0x2040 <u8g_SetChipSelect>
    2112:	12 c0       	rjmp	.+36     	; 0x2138 <u8g_WriteEscSeqP+0x80>
    2114:	c0 3c       	cpi	r28, 0xC0	; 192
    2116:	90 f0       	brcs	.+36     	; 0x213c <u8g_WriteEscSeqP+0x84>
    2118:	b7 01       	movw	r22, r14
    211a:	c8 01       	movw	r24, r16
    211c:	9b df       	rcall	.-202    	; 0x2054 <u8g_SetResetLow>
    211e:	c2 95       	swap	r28
    2120:	c0 7f       	andi	r28, 0xF0	; 240
    2122:	ce 5f       	subi	r28, 0xFE	; 254
    2124:	d0 e0       	ldi	r29, 0x00	; 0
    2126:	ce 01       	movw	r24, r28
    2128:	0e 94 39 07 	call	0xe72	; 0xe72 <u8g_Delay>
    212c:	b7 01       	movw	r22, r14
    212e:	c8 01       	movw	r24, r16
    2130:	9c df       	rcall	.-200    	; 0x206a <u8g_SetResetHigh>
    2132:	ce 01       	movw	r24, r28
    2134:	0e 94 39 07 	call	0xe72	; 0xe72 <u8g_Delay>
    2138:	80 e0       	ldi	r24, 0x00	; 0
    213a:	06 c0       	rjmp	.+12     	; 0x2148 <u8g_WriteEscSeqP+0x90>
    213c:	c7 fd       	sbrc	r28, 7
    213e:	fc cf       	rjmp	.-8      	; 0x2138 <u8g_WriteEscSeqP+0x80>
    2140:	8c 2f       	mov	r24, r28
    2142:	90 e0       	ldi	r25, 0x00	; 0
    2144:	f7 cf       	rjmp	.-18     	; 0x2134 <u8g_WriteEscSeqP+0x7c>
    2146:	81 e0       	ldi	r24, 0x01	; 1
    2148:	ff ef       	ldi	r31, 0xFF	; 255
    214a:	cf 1a       	sub	r12, r31
    214c:	df 0a       	sbc	r13, r31
    214e:	bd cf       	rjmp	.-134    	; 0x20ca <u8g_WriteEscSeqP+0x12>
    2150:	80 e0       	ldi	r24, 0x00	; 0
    2152:	01 c0       	rjmp	.+2      	; 0x2156 <u8g_WriteEscSeqP+0x9e>
    2154:	81 e0       	ldi	r24, 0x01	; 1
    2156:	cd b7       	in	r28, 0x3d	; 61
    2158:	de b7       	in	r29, 0x3e	; 62
    215a:	e8 e0       	ldi	r30, 0x08	; 8
    215c:	b9 c1       	rjmp	.+882    	; 0x24d0 <__epilogue_restores__+0x14>

0000215e <u8g_atmega_st7920_sw_spi_shift_out>:
    215e:	0f 93       	push	r16
    2160:	1f 93       	push	r17
    2162:	cf 93       	push	r28
    2164:	df 93       	push	r29
    2166:	8c 01       	movw	r16, r24
    2168:	d6 2f       	mov	r29, r22
    216a:	c8 e0       	ldi	r28, 0x08	; 8
    216c:	4d 2f       	mov	r20, r29
    216e:	40 78       	andi	r20, 0x80	; 128
    2170:	65 e0       	ldi	r22, 0x05	; 5
    2172:	c8 01       	movw	r24, r16
    2174:	0e 94 30 07 	call	0xe60	; 0xe60 <u8g_SetPILevel>
    2178:	dd 0f       	add	r29, r29
    217a:	41 e0       	ldi	r20, 0x01	; 1
    217c:	64 e0       	ldi	r22, 0x04	; 4
    217e:	c8 01       	movw	r24, r16
    2180:	0e 94 30 07 	call	0xe60	; 0xe60 <u8g_SetPILevel>
    2184:	0e 94 43 07 	call	0xe86	; 0xe86 <u8g_MicroDelay>
    2188:	40 e0       	ldi	r20, 0x00	; 0
    218a:	64 e0       	ldi	r22, 0x04	; 4
    218c:	c8 01       	movw	r24, r16
    218e:	0e 94 30 07 	call	0xe60	; 0xe60 <u8g_SetPILevel>
    2192:	0e 94 43 07 	call	0xe86	; 0xe86 <u8g_MicroDelay>
    2196:	c1 50       	subi	r28, 0x01	; 1
    2198:	49 f7       	brne	.-46     	; 0x216c <u8g_atmega_st7920_sw_spi_shift_out+0xe>
    219a:	df 91       	pop	r29
    219c:	cf 91       	pop	r28
    219e:	1f 91       	pop	r17
    21a0:	0f 91       	pop	r16
    21a2:	08 95       	ret

000021a4 <u8g_com_atmega_st7920_write_byte>:
    21a4:	1f 93       	push	r17
    21a6:	cf 93       	push	r28
    21a8:	df 93       	push	r29
    21aa:	ec 01       	movw	r28, r24
    21ac:	14 2f       	mov	r17, r20
    21ae:	61 11       	cpse	r22, r1
    21b0:	02 c0       	rjmp	.+4      	; 0x21b6 <u8g_com_atmega_st7920_write_byte+0x12>
    21b2:	68 ef       	ldi	r22, 0xF8	; 248
    21b4:	03 c0       	rjmp	.+6      	; 0x21bc <u8g_com_atmega_st7920_write_byte+0x18>
    21b6:	61 30       	cpi	r22, 0x01	; 1
    21b8:	19 f4       	brne	.+6      	; 0x21c0 <u8g_com_atmega_st7920_write_byte+0x1c>
    21ba:	6a ef       	ldi	r22, 0xFA	; 250
    21bc:	ce 01       	movw	r24, r28
    21be:	cf df       	rcall	.-98     	; 0x215e <u8g_atmega_st7920_sw_spi_shift_out>
    21c0:	61 2f       	mov	r22, r17
    21c2:	60 7f       	andi	r22, 0xF0	; 240
    21c4:	ce 01       	movw	r24, r28
    21c6:	cb df       	rcall	.-106    	; 0x215e <u8g_atmega_st7920_sw_spi_shift_out>
    21c8:	61 2f       	mov	r22, r17
    21ca:	62 95       	swap	r22
    21cc:	60 7f       	andi	r22, 0xF0	; 240
    21ce:	ce 01       	movw	r24, r28
    21d0:	c6 df       	rcall	.-116    	; 0x215e <u8g_atmega_st7920_sw_spi_shift_out>
    21d2:	0e 94 48 07 	call	0xe90	; 0xe90 <u8g_10MicroDelay>
    21d6:	0e 94 48 07 	call	0xe90	; 0xe90 <u8g_10MicroDelay>
    21da:	0e 94 48 07 	call	0xe90	; 0xe90 <u8g_10MicroDelay>
    21de:	0e 94 48 07 	call	0xe90	; 0xe90 <u8g_10MicroDelay>
    21e2:	df 91       	pop	r29
    21e4:	cf 91       	pop	r28
    21e6:	1f 91       	pop	r17
    21e8:	08 95       	ret

000021ea <u8g_com_atmega_st7920_sw_spi_fn>:
    21ea:	ef 92       	push	r14
    21ec:	ff 92       	push	r15
    21ee:	0f 93       	push	r16
    21f0:	1f 93       	push	r17
    21f2:	cf 93       	push	r28
    21f4:	df 93       	push	r29
    21f6:	ec 01       	movw	r28, r24
    21f8:	14 2f       	mov	r17, r20
    21fa:	79 01       	movw	r14, r18
    21fc:	86 2f       	mov	r24, r22
    21fe:	90 e0       	ldi	r25, 0x00	; 0
    2200:	fc 01       	movw	r30, r24
    2202:	31 97       	sbiw	r30, 0x01	; 1
    2204:	e7 30       	cpi	r30, 0x07	; 7
    2206:	f1 05       	cpc	r31, r1
    2208:	08 f0       	brcs	.+2      	; 0x220c <u8g_com_atmega_st7920_sw_spi_fn+0x22>
    220a:	54 c0       	rjmp	.+168    	; 0x22b4 <u8g_com_atmega_st7920_sw_spi_fn+0xca>
    220c:	ec 5c       	subi	r30, 0xCC	; 204
    220e:	ff 4f       	sbci	r31, 0xFF	; 255
    2210:	33 c1       	rjmp	.+614    	; 0x2478 <__tablejump2__>
    2212:	02 e0       	ldi	r16, 0x02	; 2
    2214:	42 c0       	rjmp	.+132    	; 0x229a <u8g_com_atmega_st7920_sw_spi_fn+0xb0>
    2216:	02 e0       	ldi	r16, 0x02	; 2
    2218:	35 c0       	rjmp	.+106    	; 0x2284 <u8g_com_atmega_st7920_sw_spi_fn+0x9a>
    221a:	64 e0       	ldi	r22, 0x04	; 4
    221c:	ce 01       	movw	r24, r28
    221e:	0e 94 28 07 	call	0xe50	; 0xe50 <u8g_SetPIOutput>
    2222:	65 e0       	ldi	r22, 0x05	; 5
    2224:	ce 01       	movw	r24, r28
    2226:	0e 94 28 07 	call	0xe50	; 0xe50 <u8g_SetPIOutput>
    222a:	62 e0       	ldi	r22, 0x02	; 2
    222c:	ce 01       	movw	r24, r28
    222e:	0e 94 28 07 	call	0xe50	; 0xe50 <u8g_SetPIOutput>
    2232:	60 e0       	ldi	r22, 0x00	; 0
    2234:	ce 01       	movw	r24, r28
    2236:	0e 94 28 07 	call	0xe50	; 0xe50 <u8g_SetPIOutput>
    223a:	40 e0       	ldi	r20, 0x00	; 0
    223c:	64 e0       	ldi	r22, 0x04	; 4
    223e:	ce 01       	movw	r24, r28
    2240:	0e 94 30 07 	call	0xe60	; 0xe60 <u8g_SetPILevel>
    2244:	40 e0       	ldi	r20, 0x00	; 0
    2246:	65 e0       	ldi	r22, 0x05	; 5
    2248:	ce 01       	movw	r24, r28
    224a:	0e 94 30 07 	call	0xe60	; 0xe60 <u8g_SetPILevel>
    224e:	40 e0       	ldi	r20, 0x00	; 0
    2250:	62 e0       	ldi	r22, 0x02	; 2
    2252:	ce 01       	movw	r24, r28
    2254:	0e 94 30 07 	call	0xe60	; 0xe60 <u8g_SetPILevel>
    2258:	1e a2       	std	Y+38, r1	; 0x26
    225a:	2c c0       	rjmp	.+88     	; 0x22b4 <u8g_com_atmega_st7920_sw_spi_fn+0xca>
    225c:	60 e0       	ldi	r22, 0x00	; 0
    225e:	06 c0       	rjmp	.+12     	; 0x226c <u8g_com_atmega_st7920_sw_spi_fn+0x82>
    2260:	4e a3       	std	Y+38, r20	; 0x26
    2262:	28 c0       	rjmp	.+80     	; 0x22b4 <u8g_com_atmega_st7920_sw_spi_fn+0xca>
    2264:	41 11       	cpse	r20, r1
    2266:	06 c0       	rjmp	.+12     	; 0x2274 <u8g_com_atmega_st7920_sw_spi_fn+0x8a>
    2268:	40 e0       	ldi	r20, 0x00	; 0
    226a:	62 e0       	ldi	r22, 0x02	; 2
    226c:	ce 01       	movw	r24, r28
    226e:	0e 94 30 07 	call	0xe60	; 0xe60 <u8g_SetPILevel>
    2272:	20 c0       	rjmp	.+64     	; 0x22b4 <u8g_com_atmega_st7920_sw_spi_fn+0xca>
    2274:	41 e0       	ldi	r20, 0x01	; 1
    2276:	f9 cf       	rjmp	.-14     	; 0x226a <u8g_com_atmega_st7920_sw_spi_fn+0x80>
    2278:	6e a1       	ldd	r22, Y+38	; 0x26
    227a:	ce 01       	movw	r24, r28
    227c:	93 df       	rcall	.-218    	; 0x21a4 <u8g_com_atmega_st7920_write_byte>
    227e:	82 e0       	ldi	r24, 0x02	; 2
    2280:	8e a3       	std	Y+38, r24	; 0x26
    2282:	18 c0       	rjmp	.+48     	; 0x22b4 <u8g_com_atmega_st7920_sw_spi_fn+0xca>
    2284:	11 23       	and	r17, r17
    2286:	b1 f0       	breq	.+44     	; 0x22b4 <u8g_com_atmega_st7920_sw_spi_fn+0xca>
    2288:	f7 01       	movw	r30, r14
    228a:	41 91       	ld	r20, Z+
    228c:	7f 01       	movw	r14, r30
    228e:	6e a1       	ldd	r22, Y+38	; 0x26
    2290:	ce 01       	movw	r24, r28
    2292:	88 df       	rcall	.-240    	; 0x21a4 <u8g_com_atmega_st7920_write_byte>
    2294:	0e a3       	std	Y+38, r16	; 0x26
    2296:	11 50       	subi	r17, 0x01	; 1
    2298:	f5 cf       	rjmp	.-22     	; 0x2284 <u8g_com_atmega_st7920_sw_spi_fn+0x9a>
    229a:	11 23       	and	r17, r17
    229c:	59 f0       	breq	.+22     	; 0x22b4 <u8g_com_atmega_st7920_sw_spi_fn+0xca>
    229e:	f7 01       	movw	r30, r14
    22a0:	44 91       	lpm	r20, Z
    22a2:	6e a1       	ldd	r22, Y+38	; 0x26
    22a4:	ce 01       	movw	r24, r28
    22a6:	7e df       	rcall	.-260    	; 0x21a4 <u8g_com_atmega_st7920_write_byte>
    22a8:	0e a3       	std	Y+38, r16	; 0x26
    22aa:	ff ef       	ldi	r31, 0xFF	; 255
    22ac:	ef 1a       	sub	r14, r31
    22ae:	ff 0a       	sbc	r15, r31
    22b0:	11 50       	subi	r17, 0x01	; 1
    22b2:	f3 cf       	rjmp	.-26     	; 0x229a <u8g_com_atmega_st7920_sw_spi_fn+0xb0>
    22b4:	81 e0       	ldi	r24, 0x01	; 1
    22b6:	cd b7       	in	r28, 0x3d	; 61
    22b8:	de b7       	in	r29, 0x3e	; 62
    22ba:	e6 e0       	ldi	r30, 0x06	; 6
    22bc:	0b c1       	rjmp	.+534    	; 0x24d4 <__epilogue_restores__+0x18>

000022be <u8g_page_First>:
    22be:	fc 01       	movw	r30, r24
    22c0:	12 82       	std	Z+2, r1	; 0x02
    22c2:	80 81       	ld	r24, Z
    22c4:	81 50       	subi	r24, 0x01	; 1
    22c6:	83 83       	std	Z+3, r24	; 0x03
    22c8:	14 82       	std	Z+4, r1	; 0x04
    22ca:	08 95       	ret

000022cc <u8g_page_Next>:
    22cc:	fc 01       	movw	r30, r24
    22ce:	80 81       	ld	r24, Z
    22d0:	92 81       	ldd	r25, Z+2	; 0x02
    22d2:	98 0f       	add	r25, r24
    22d4:	92 83       	std	Z+2, r25	; 0x02
    22d6:	21 81       	ldd	r18, Z+1	; 0x01
    22d8:	92 17       	cp	r25, r18
    22da:	60 f4       	brcc	.+24     	; 0x22f4 <u8g_page_Next+0x28>
    22dc:	94 81       	ldd	r25, Z+4	; 0x04
    22de:	9f 5f       	subi	r25, 0xFF	; 255
    22e0:	94 83       	std	Z+4, r25	; 0x04
    22e2:	93 81       	ldd	r25, Z+3	; 0x03
    22e4:	89 0f       	add	r24, r25
    22e6:	82 17       	cp	r24, r18
    22e8:	10 f0       	brcs	.+4      	; 0x22ee <u8g_page_Next+0x22>
    22ea:	8f ef       	ldi	r24, 0xFF	; 255
    22ec:	82 0f       	add	r24, r18
    22ee:	83 83       	std	Z+3, r24	; 0x03
    22f0:	81 e0       	ldi	r24, 0x01	; 1
    22f2:	08 95       	ret
    22f4:	80 e0       	ldi	r24, 0x00	; 0
    22f6:	08 95       	ret

000022f8 <i2c_init>:
    22f8:	10 92 b9 00 	sts	0x00B9, r1
    22fc:	8c e0       	ldi	r24, 0x0C	; 12
    22fe:	80 93 b8 00 	sts	0x00B8, r24
    2302:	08 95       	ret

00002304 <i2c_start>:
    2304:	94 ea       	ldi	r25, 0xA4	; 164
    2306:	90 93 bc 00 	sts	0x00BC, r25
    230a:	4f ef       	ldi	r20, 0xFF	; 255
    230c:	50 e0       	ldi	r21, 0x00	; 0
    230e:	60 e0       	ldi	r22, 0x00	; 0
    2310:	70 e0       	ldi	r23, 0x00	; 0
    2312:	90 91 bc 00 	lds	r25, 0x00BC
    2316:	97 fd       	sbrc	r25, 7
    2318:	06 c0       	rjmp	.+12     	; 0x2326 <i2c_start+0x22>
    231a:	41 50       	subi	r20, 0x01	; 1
    231c:	51 09       	sbc	r21, r1
    231e:	61 09       	sbc	r22, r1
    2320:	71 09       	sbc	r23, r1
    2322:	b8 f7       	brcc	.-18     	; 0x2312 <i2c_start+0xe>
    2324:	06 c0       	rjmp	.+12     	; 0x2332 <i2c_start+0x2e>
    2326:	45 2b       	or	r20, r21
    2328:	46 2b       	or	r20, r22
    232a:	47 2b       	or	r20, r23
    232c:	11 f4       	brne	.+4      	; 0x2332 <i2c_start+0x2e>
    232e:	81 e0       	ldi	r24, 0x01	; 1
    2330:	08 95       	ret
    2332:	90 91 b9 00 	lds	r25, 0x00B9
    2336:	98 7f       	andi	r25, 0xF8	; 248
    2338:	98 30       	cpi	r25, 0x08	; 8
    233a:	11 f0       	breq	.+4      	; 0x2340 <i2c_start+0x3c>
    233c:	90 31       	cpi	r25, 0x10	; 16
    233e:	b9 f7       	brne	.-18     	; 0x232e <i2c_start+0x2a>
    2340:	80 93 bb 00 	sts	0x00BB, r24
    2344:	84 e8       	ldi	r24, 0x84	; 132
    2346:	80 93 bc 00 	sts	0x00BC, r24
    234a:	8f ef       	ldi	r24, 0xFF	; 255
    234c:	90 e0       	ldi	r25, 0x00	; 0
    234e:	a0 e0       	ldi	r26, 0x00	; 0
    2350:	b0 e0       	ldi	r27, 0x00	; 0
    2352:	20 91 bc 00 	lds	r18, 0x00BC
    2356:	27 fd       	sbrc	r18, 7
    2358:	05 c0       	rjmp	.+10     	; 0x2364 <i2c_start+0x60>
    235a:	01 97       	sbiw	r24, 0x01	; 1
    235c:	a1 09       	sbc	r26, r1
    235e:	b1 09       	sbc	r27, r1
    2360:	c0 f7       	brcc	.-16     	; 0x2352 <i2c_start+0x4e>
    2362:	04 c0       	rjmp	.+8      	; 0x236c <i2c_start+0x68>
    2364:	89 2b       	or	r24, r25
    2366:	8a 2b       	or	r24, r26
    2368:	8b 2b       	or	r24, r27
    236a:	09 f3       	breq	.-62     	; 0x232e <i2c_start+0x2a>
    236c:	80 91 b9 00 	lds	r24, 0x00B9
    2370:	88 7f       	andi	r24, 0xF8	; 248
    2372:	88 31       	cpi	r24, 0x18	; 24
    2374:	11 f0       	breq	.+4      	; 0x237a <i2c_start+0x76>
    2376:	80 34       	cpi	r24, 0x40	; 64
    2378:	d1 f6       	brne	.-76     	; 0x232e <i2c_start+0x2a>
    237a:	80 e0       	ldi	r24, 0x00	; 0
    237c:	08 95       	ret

0000237e <i2c_stop>:
    237e:	84 e9       	ldi	r24, 0x94	; 148
    2380:	80 93 bc 00 	sts	0x00BC, r24
    2384:	80 e0       	ldi	r24, 0x00	; 0
    2386:	90 e0       	ldi	r25, 0x00	; 0
    2388:	20 91 bc 00 	lds	r18, 0x00BC
    238c:	24 ff       	sbrs	r18, 4
    238e:	05 c0       	rjmp	.+10     	; 0x239a <i2c_stop+0x1c>
    2390:	01 96       	adiw	r24, 0x01	; 1
    2392:	81 15       	cp	r24, r1
    2394:	21 e0       	ldi	r18, 0x01	; 1
    2396:	92 07       	cpc	r25, r18
    2398:	b9 f7       	brne	.-18     	; 0x2388 <i2c_stop+0xa>
    239a:	08 95       	ret

0000239c <i2c_write>:
    239c:	80 93 bb 00 	sts	0x00BB, r24
    23a0:	84 e8       	ldi	r24, 0x84	; 132
    23a2:	80 93 bc 00 	sts	0x00BC, r24
    23a6:	8f ef       	ldi	r24, 0xFF	; 255
    23a8:	90 e0       	ldi	r25, 0x00	; 0
    23aa:	a0 e0       	ldi	r26, 0x00	; 0
    23ac:	b0 e0       	ldi	r27, 0x00	; 0
    23ae:	20 91 bc 00 	lds	r18, 0x00BC
    23b2:	27 fd       	sbrc	r18, 7
    23b4:	05 c0       	rjmp	.+10     	; 0x23c0 <i2c_write+0x24>
    23b6:	01 97       	sbiw	r24, 0x01	; 1
    23b8:	a1 09       	sbc	r26, r1
    23ba:	b1 09       	sbc	r27, r1
    23bc:	c0 f7       	brcc	.-16     	; 0x23ae <i2c_write+0x12>
    23be:	04 c0       	rjmp	.+8      	; 0x23c8 <i2c_write+0x2c>
    23c0:	89 2b       	or	r24, r25
    23c2:	8a 2b       	or	r24, r26
    23c4:	8b 2b       	or	r24, r27
    23c6:	41 f0       	breq	.+16     	; 0x23d8 <i2c_write+0x3c>
    23c8:	90 91 b9 00 	lds	r25, 0x00B9
    23cc:	98 7f       	andi	r25, 0xF8	; 248
    23ce:	81 e0       	ldi	r24, 0x01	; 1
    23d0:	98 32       	cpi	r25, 0x28	; 40
    23d2:	19 f4       	brne	.+6      	; 0x23da <i2c_write+0x3e>
    23d4:	80 e0       	ldi	r24, 0x00	; 0
    23d6:	08 95       	ret
    23d8:	81 e0       	ldi	r24, 0x01	; 1
    23da:	08 95       	ret

000023dc <i2c_readAck>:
    23dc:	84 ec       	ldi	r24, 0xC4	; 196
    23de:	80 93 bc 00 	sts	0x00BC, r24
    23e2:	8f ef       	ldi	r24, 0xFF	; 255
    23e4:	90 e0       	ldi	r25, 0x00	; 0
    23e6:	a0 e0       	ldi	r26, 0x00	; 0
    23e8:	b0 e0       	ldi	r27, 0x00	; 0
    23ea:	20 91 bc 00 	lds	r18, 0x00BC
    23ee:	27 fd       	sbrc	r18, 7
    23f0:	05 c0       	rjmp	.+10     	; 0x23fc <i2c_readAck+0x20>
    23f2:	01 97       	sbiw	r24, 0x01	; 1
    23f4:	a1 09       	sbc	r26, r1
    23f6:	b1 09       	sbc	r27, r1
    23f8:	c0 f7       	brcc	.-16     	; 0x23ea <i2c_readAck+0xe>
    23fa:	04 c0       	rjmp	.+8      	; 0x2404 <i2c_readAck+0x28>
    23fc:	89 2b       	or	r24, r25
    23fe:	8a 2b       	or	r24, r26
    2400:	8b 2b       	or	r24, r27
    2402:	19 f0       	breq	.+6      	; 0x240a <i2c_readAck+0x2e>
    2404:	80 91 bb 00 	lds	r24, 0x00BB
    2408:	08 95       	ret
    240a:	80 e0       	ldi	r24, 0x00	; 0
    240c:	08 95       	ret

0000240e <i2c_readNak>:
    240e:	84 e8       	ldi	r24, 0x84	; 132
    2410:	80 93 bc 00 	sts	0x00BC, r24
    2414:	8f ef       	ldi	r24, 0xFF	; 255
    2416:	90 e0       	ldi	r25, 0x00	; 0
    2418:	a0 e0       	ldi	r26, 0x00	; 0
    241a:	b0 e0       	ldi	r27, 0x00	; 0
    241c:	20 91 bc 00 	lds	r18, 0x00BC
    2420:	27 fd       	sbrc	r18, 7
    2422:	05 c0       	rjmp	.+10     	; 0x242e <i2c_readNak+0x20>
    2424:	01 97       	sbiw	r24, 0x01	; 1
    2426:	a1 09       	sbc	r26, r1
    2428:	b1 09       	sbc	r27, r1
    242a:	c0 f7       	brcc	.-16     	; 0x241c <i2c_readNak+0xe>
    242c:	04 c0       	rjmp	.+8      	; 0x2436 <i2c_readNak+0x28>
    242e:	89 2b       	or	r24, r25
    2430:	8a 2b       	or	r24, r26
    2432:	8b 2b       	or	r24, r27
    2434:	19 f0       	breq	.+6      	; 0x243c <i2c_readNak+0x2e>
    2436:	80 91 bb 00 	lds	r24, 0x00BB
    243a:	08 95       	ret
    243c:	80 e0       	ldi	r24, 0x00	; 0
    243e:	08 95       	ret

00002440 <__divmodsi4>:
    2440:	05 2e       	mov	r0, r21
    2442:	97 fb       	bst	r25, 7
    2444:	16 f4       	brtc	.+4      	; 0x244a <__divmodsi4+0xa>
    2446:	00 94       	com	r0
    2448:	0f d0       	rcall	.+30     	; 0x2468 <__negsi2>
    244a:	57 fd       	sbrc	r21, 7
    244c:	05 d0       	rcall	.+10     	; 0x2458 <__divmodsi4_neg2>
    244e:	51 d0       	rcall	.+162    	; 0x24f2 <__udivmodsi4>
    2450:	07 fc       	sbrc	r0, 7
    2452:	02 d0       	rcall	.+4      	; 0x2458 <__divmodsi4_neg2>
    2454:	46 f4       	brtc	.+16     	; 0x2466 <__divmodsi4_exit>
    2456:	08 c0       	rjmp	.+16     	; 0x2468 <__negsi2>

00002458 <__divmodsi4_neg2>:
    2458:	50 95       	com	r21
    245a:	40 95       	com	r20
    245c:	30 95       	com	r19
    245e:	21 95       	neg	r18
    2460:	3f 4f       	sbci	r19, 0xFF	; 255
    2462:	4f 4f       	sbci	r20, 0xFF	; 255
    2464:	5f 4f       	sbci	r21, 0xFF	; 255

00002466 <__divmodsi4_exit>:
    2466:	08 95       	ret

00002468 <__negsi2>:
    2468:	90 95       	com	r25
    246a:	80 95       	com	r24
    246c:	70 95       	com	r23
    246e:	61 95       	neg	r22
    2470:	7f 4f       	sbci	r23, 0xFF	; 255
    2472:	8f 4f       	sbci	r24, 0xFF	; 255
    2474:	9f 4f       	sbci	r25, 0xFF	; 255
    2476:	08 95       	ret

00002478 <__tablejump2__>:
    2478:	ee 0f       	add	r30, r30
    247a:	ff 1f       	adc	r31, r31
    247c:	05 90       	lpm	r0, Z+
    247e:	f4 91       	lpm	r31, Z
    2480:	e0 2d       	mov	r30, r0
    2482:	09 94       	ijmp

00002484 <__prologue_saves__>:
    2484:	2f 92       	push	r2
    2486:	3f 92       	push	r3
    2488:	4f 92       	push	r4
    248a:	5f 92       	push	r5
    248c:	6f 92       	push	r6
    248e:	7f 92       	push	r7
    2490:	8f 92       	push	r8
    2492:	9f 92       	push	r9
    2494:	af 92       	push	r10
    2496:	bf 92       	push	r11
    2498:	cf 92       	push	r12
    249a:	df 92       	push	r13
    249c:	ef 92       	push	r14
    249e:	ff 92       	push	r15
    24a0:	0f 93       	push	r16
    24a2:	1f 93       	push	r17
    24a4:	cf 93       	push	r28
    24a6:	df 93       	push	r29
    24a8:	cd b7       	in	r28, 0x3d	; 61
    24aa:	de b7       	in	r29, 0x3e	; 62
    24ac:	ca 1b       	sub	r28, r26
    24ae:	db 0b       	sbc	r29, r27
    24b0:	0f b6       	in	r0, 0x3f	; 63
    24b2:	f8 94       	cli
    24b4:	de bf       	out	0x3e, r29	; 62
    24b6:	0f be       	out	0x3f, r0	; 63
    24b8:	cd bf       	out	0x3d, r28	; 61
    24ba:	09 94       	ijmp

000024bc <__epilogue_restores__>:
    24bc:	2a 88       	ldd	r2, Y+18	; 0x12
    24be:	39 88       	ldd	r3, Y+17	; 0x11
    24c0:	48 88       	ldd	r4, Y+16	; 0x10
    24c2:	5f 84       	ldd	r5, Y+15	; 0x0f
    24c4:	6e 84       	ldd	r6, Y+14	; 0x0e
    24c6:	7d 84       	ldd	r7, Y+13	; 0x0d
    24c8:	8c 84       	ldd	r8, Y+12	; 0x0c
    24ca:	9b 84       	ldd	r9, Y+11	; 0x0b
    24cc:	aa 84       	ldd	r10, Y+10	; 0x0a
    24ce:	b9 84       	ldd	r11, Y+9	; 0x09
    24d0:	c8 84       	ldd	r12, Y+8	; 0x08
    24d2:	df 80       	ldd	r13, Y+7	; 0x07
    24d4:	ee 80       	ldd	r14, Y+6	; 0x06
    24d6:	fd 80       	ldd	r15, Y+5	; 0x05
    24d8:	0c 81       	ldd	r16, Y+4	; 0x04
    24da:	1b 81       	ldd	r17, Y+3	; 0x03
    24dc:	aa 81       	ldd	r26, Y+2	; 0x02
    24de:	b9 81       	ldd	r27, Y+1	; 0x01
    24e0:	ce 0f       	add	r28, r30
    24e2:	d1 1d       	adc	r29, r1
    24e4:	0f b6       	in	r0, 0x3f	; 63
    24e6:	f8 94       	cli
    24e8:	de bf       	out	0x3e, r29	; 62
    24ea:	0f be       	out	0x3f, r0	; 63
    24ec:	cd bf       	out	0x3d, r28	; 61
    24ee:	ed 01       	movw	r28, r26
    24f0:	08 95       	ret

000024f2 <__udivmodsi4>:
    24f2:	a1 e2       	ldi	r26, 0x21	; 33
    24f4:	1a 2e       	mov	r1, r26
    24f6:	aa 1b       	sub	r26, r26
    24f8:	bb 1b       	sub	r27, r27
    24fa:	fd 01       	movw	r30, r26
    24fc:	0d c0       	rjmp	.+26     	; 0x2518 <__udivmodsi4_ep>

000024fe <__udivmodsi4_loop>:
    24fe:	aa 1f       	adc	r26, r26
    2500:	bb 1f       	adc	r27, r27
    2502:	ee 1f       	adc	r30, r30
    2504:	ff 1f       	adc	r31, r31
    2506:	a2 17       	cp	r26, r18
    2508:	b3 07       	cpc	r27, r19
    250a:	e4 07       	cpc	r30, r20
    250c:	f5 07       	cpc	r31, r21
    250e:	20 f0       	brcs	.+8      	; 0x2518 <__udivmodsi4_ep>
    2510:	a2 1b       	sub	r26, r18
    2512:	b3 0b       	sbc	r27, r19
    2514:	e4 0b       	sbc	r30, r20
    2516:	f5 0b       	sbc	r31, r21

00002518 <__udivmodsi4_ep>:
    2518:	66 1f       	adc	r22, r22
    251a:	77 1f       	adc	r23, r23
    251c:	88 1f       	adc	r24, r24
    251e:	99 1f       	adc	r25, r25
    2520:	1a 94       	dec	r1
    2522:	69 f7       	brne	.-38     	; 0x24fe <__udivmodsi4_loop>
    2524:	60 95       	com	r22
    2526:	70 95       	com	r23
    2528:	80 95       	com	r24
    252a:	90 95       	com	r25
    252c:	9b 01       	movw	r18, r22
    252e:	ac 01       	movw	r20, r24
    2530:	bd 01       	movw	r22, r26
    2532:	cf 01       	movw	r24, r30
    2534:	08 95       	ret

00002536 <__divsf3>:
    2536:	0c d0       	rcall	.+24     	; 0x2550 <__divsf3x>
    2538:	eb c0       	rjmp	.+470    	; 0x2710 <__fp_round>
    253a:	e3 d0       	rcall	.+454    	; 0x2702 <__fp_pscB>
    253c:	40 f0       	brcs	.+16     	; 0x254e <__divsf3+0x18>
    253e:	da d0       	rcall	.+436    	; 0x26f4 <__fp_pscA>
    2540:	30 f0       	brcs	.+12     	; 0x254e <__divsf3+0x18>
    2542:	21 f4       	brne	.+8      	; 0x254c <__divsf3+0x16>
    2544:	5f 3f       	cpi	r21, 0xFF	; 255
    2546:	19 f0       	breq	.+6      	; 0x254e <__divsf3+0x18>
    2548:	cc c0       	rjmp	.+408    	; 0x26e2 <__fp_inf>
    254a:	51 11       	cpse	r21, r1
    254c:	15 c1       	rjmp	.+554    	; 0x2778 <__fp_szero>
    254e:	cf c0       	rjmp	.+414    	; 0x26ee <__fp_nan>

00002550 <__divsf3x>:
    2550:	f0 d0       	rcall	.+480    	; 0x2732 <__fp_split3>
    2552:	98 f3       	brcs	.-26     	; 0x253a <__divsf3+0x4>

00002554 <__divsf3_pse>:
    2554:	99 23       	and	r25, r25
    2556:	c9 f3       	breq	.-14     	; 0x254a <__divsf3+0x14>
    2558:	55 23       	and	r21, r21
    255a:	b1 f3       	breq	.-20     	; 0x2548 <__divsf3+0x12>
    255c:	95 1b       	sub	r25, r21
    255e:	55 0b       	sbc	r21, r21
    2560:	bb 27       	eor	r27, r27
    2562:	aa 27       	eor	r26, r26
    2564:	62 17       	cp	r22, r18
    2566:	73 07       	cpc	r23, r19
    2568:	84 07       	cpc	r24, r20
    256a:	38 f0       	brcs	.+14     	; 0x257a <__divsf3_pse+0x26>
    256c:	9f 5f       	subi	r25, 0xFF	; 255
    256e:	5f 4f       	sbci	r21, 0xFF	; 255
    2570:	22 0f       	add	r18, r18
    2572:	33 1f       	adc	r19, r19
    2574:	44 1f       	adc	r20, r20
    2576:	aa 1f       	adc	r26, r26
    2578:	a9 f3       	breq	.-22     	; 0x2564 <__divsf3_pse+0x10>
    257a:	33 d0       	rcall	.+102    	; 0x25e2 <__divsf3_pse+0x8e>
    257c:	0e 2e       	mov	r0, r30
    257e:	3a f0       	brmi	.+14     	; 0x258e <__divsf3_pse+0x3a>
    2580:	e0 e8       	ldi	r30, 0x80	; 128
    2582:	30 d0       	rcall	.+96     	; 0x25e4 <__divsf3_pse+0x90>
    2584:	91 50       	subi	r25, 0x01	; 1
    2586:	50 40       	sbci	r21, 0x00	; 0
    2588:	e6 95       	lsr	r30
    258a:	00 1c       	adc	r0, r0
    258c:	ca f7       	brpl	.-14     	; 0x2580 <__divsf3_pse+0x2c>
    258e:	29 d0       	rcall	.+82     	; 0x25e2 <__divsf3_pse+0x8e>
    2590:	fe 2f       	mov	r31, r30
    2592:	27 d0       	rcall	.+78     	; 0x25e2 <__divsf3_pse+0x8e>
    2594:	66 0f       	add	r22, r22
    2596:	77 1f       	adc	r23, r23
    2598:	88 1f       	adc	r24, r24
    259a:	bb 1f       	adc	r27, r27
    259c:	26 17       	cp	r18, r22
    259e:	37 07       	cpc	r19, r23
    25a0:	48 07       	cpc	r20, r24
    25a2:	ab 07       	cpc	r26, r27
    25a4:	b0 e8       	ldi	r27, 0x80	; 128
    25a6:	09 f0       	breq	.+2      	; 0x25aa <__divsf3_pse+0x56>
    25a8:	bb 0b       	sbc	r27, r27
    25aa:	80 2d       	mov	r24, r0
    25ac:	bf 01       	movw	r22, r30
    25ae:	ff 27       	eor	r31, r31
    25b0:	93 58       	subi	r25, 0x83	; 131
    25b2:	5f 4f       	sbci	r21, 0xFF	; 255
    25b4:	2a f0       	brmi	.+10     	; 0x25c0 <__divsf3_pse+0x6c>
    25b6:	9e 3f       	cpi	r25, 0xFE	; 254
    25b8:	51 05       	cpc	r21, r1
    25ba:	68 f0       	brcs	.+26     	; 0x25d6 <__divsf3_pse+0x82>
    25bc:	92 c0       	rjmp	.+292    	; 0x26e2 <__fp_inf>
    25be:	dc c0       	rjmp	.+440    	; 0x2778 <__fp_szero>
    25c0:	5f 3f       	cpi	r21, 0xFF	; 255
    25c2:	ec f3       	brlt	.-6      	; 0x25be <__divsf3_pse+0x6a>
    25c4:	98 3e       	cpi	r25, 0xE8	; 232
    25c6:	dc f3       	brlt	.-10     	; 0x25be <__divsf3_pse+0x6a>
    25c8:	86 95       	lsr	r24
    25ca:	77 95       	ror	r23
    25cc:	67 95       	ror	r22
    25ce:	b7 95       	ror	r27
    25d0:	f7 95       	ror	r31
    25d2:	9f 5f       	subi	r25, 0xFF	; 255
    25d4:	c9 f7       	brne	.-14     	; 0x25c8 <__divsf3_pse+0x74>
    25d6:	88 0f       	add	r24, r24
    25d8:	91 1d       	adc	r25, r1
    25da:	96 95       	lsr	r25
    25dc:	87 95       	ror	r24
    25de:	97 f9       	bld	r25, 7
    25e0:	08 95       	ret
    25e2:	e1 e0       	ldi	r30, 0x01	; 1
    25e4:	66 0f       	add	r22, r22
    25e6:	77 1f       	adc	r23, r23
    25e8:	88 1f       	adc	r24, r24
    25ea:	bb 1f       	adc	r27, r27
    25ec:	62 17       	cp	r22, r18
    25ee:	73 07       	cpc	r23, r19
    25f0:	84 07       	cpc	r24, r20
    25f2:	ba 07       	cpc	r27, r26
    25f4:	20 f0       	brcs	.+8      	; 0x25fe <__divsf3_pse+0xaa>
    25f6:	62 1b       	sub	r22, r18
    25f8:	73 0b       	sbc	r23, r19
    25fa:	84 0b       	sbc	r24, r20
    25fc:	ba 0b       	sbc	r27, r26
    25fe:	ee 1f       	adc	r30, r30
    2600:	88 f7       	brcc	.-30     	; 0x25e4 <__divsf3_pse+0x90>
    2602:	e0 95       	com	r30
    2604:	08 95       	ret

00002606 <__fixsfsi>:
    2606:	04 d0       	rcall	.+8      	; 0x2610 <__fixunssfsi>
    2608:	68 94       	set
    260a:	b1 11       	cpse	r27, r1
    260c:	b5 c0       	rjmp	.+362    	; 0x2778 <__fp_szero>
    260e:	08 95       	ret

00002610 <__fixunssfsi>:
    2610:	98 d0       	rcall	.+304    	; 0x2742 <__fp_splitA>
    2612:	88 f0       	brcs	.+34     	; 0x2636 <__fixunssfsi+0x26>
    2614:	9f 57       	subi	r25, 0x7F	; 127
    2616:	90 f0       	brcs	.+36     	; 0x263c <__fixunssfsi+0x2c>
    2618:	b9 2f       	mov	r27, r25
    261a:	99 27       	eor	r25, r25
    261c:	b7 51       	subi	r27, 0x17	; 23
    261e:	a0 f0       	brcs	.+40     	; 0x2648 <__fixunssfsi+0x38>
    2620:	d1 f0       	breq	.+52     	; 0x2656 <__fixunssfsi+0x46>
    2622:	66 0f       	add	r22, r22
    2624:	77 1f       	adc	r23, r23
    2626:	88 1f       	adc	r24, r24
    2628:	99 1f       	adc	r25, r25
    262a:	1a f0       	brmi	.+6      	; 0x2632 <__fixunssfsi+0x22>
    262c:	ba 95       	dec	r27
    262e:	c9 f7       	brne	.-14     	; 0x2622 <__fixunssfsi+0x12>
    2630:	12 c0       	rjmp	.+36     	; 0x2656 <__fixunssfsi+0x46>
    2632:	b1 30       	cpi	r27, 0x01	; 1
    2634:	81 f0       	breq	.+32     	; 0x2656 <__fixunssfsi+0x46>
    2636:	9f d0       	rcall	.+318    	; 0x2776 <__fp_zero>
    2638:	b1 e0       	ldi	r27, 0x01	; 1
    263a:	08 95       	ret
    263c:	9c c0       	rjmp	.+312    	; 0x2776 <__fp_zero>
    263e:	67 2f       	mov	r22, r23
    2640:	78 2f       	mov	r23, r24
    2642:	88 27       	eor	r24, r24
    2644:	b8 5f       	subi	r27, 0xF8	; 248
    2646:	39 f0       	breq	.+14     	; 0x2656 <__fixunssfsi+0x46>
    2648:	b9 3f       	cpi	r27, 0xF9	; 249
    264a:	cc f3       	brlt	.-14     	; 0x263e <__fixunssfsi+0x2e>
    264c:	86 95       	lsr	r24
    264e:	77 95       	ror	r23
    2650:	67 95       	ror	r22
    2652:	b3 95       	inc	r27
    2654:	d9 f7       	brne	.-10     	; 0x264c <__fixunssfsi+0x3c>
    2656:	3e f4       	brtc	.+14     	; 0x2666 <__fixunssfsi+0x56>
    2658:	90 95       	com	r25
    265a:	80 95       	com	r24
    265c:	70 95       	com	r23
    265e:	61 95       	neg	r22
    2660:	7f 4f       	sbci	r23, 0xFF	; 255
    2662:	8f 4f       	sbci	r24, 0xFF	; 255
    2664:	9f 4f       	sbci	r25, 0xFF	; 255
    2666:	08 95       	ret

00002668 <__floatunsisf>:
    2668:	e8 94       	clt
    266a:	09 c0       	rjmp	.+18     	; 0x267e <__floatsisf+0x12>

0000266c <__floatsisf>:
    266c:	97 fb       	bst	r25, 7
    266e:	3e f4       	brtc	.+14     	; 0x267e <__floatsisf+0x12>
    2670:	90 95       	com	r25
    2672:	80 95       	com	r24
    2674:	70 95       	com	r23
    2676:	61 95       	neg	r22
    2678:	7f 4f       	sbci	r23, 0xFF	; 255
    267a:	8f 4f       	sbci	r24, 0xFF	; 255
    267c:	9f 4f       	sbci	r25, 0xFF	; 255
    267e:	99 23       	and	r25, r25
    2680:	a9 f0       	breq	.+42     	; 0x26ac <__floatsisf+0x40>
    2682:	f9 2f       	mov	r31, r25
    2684:	96 e9       	ldi	r25, 0x96	; 150
    2686:	bb 27       	eor	r27, r27
    2688:	93 95       	inc	r25
    268a:	f6 95       	lsr	r31
    268c:	87 95       	ror	r24
    268e:	77 95       	ror	r23
    2690:	67 95       	ror	r22
    2692:	b7 95       	ror	r27
    2694:	f1 11       	cpse	r31, r1
    2696:	f8 cf       	rjmp	.-16     	; 0x2688 <__floatsisf+0x1c>
    2698:	fa f4       	brpl	.+62     	; 0x26d8 <__floatsisf+0x6c>
    269a:	bb 0f       	add	r27, r27
    269c:	11 f4       	brne	.+4      	; 0x26a2 <__floatsisf+0x36>
    269e:	60 ff       	sbrs	r22, 0
    26a0:	1b c0       	rjmp	.+54     	; 0x26d8 <__floatsisf+0x6c>
    26a2:	6f 5f       	subi	r22, 0xFF	; 255
    26a4:	7f 4f       	sbci	r23, 0xFF	; 255
    26a6:	8f 4f       	sbci	r24, 0xFF	; 255
    26a8:	9f 4f       	sbci	r25, 0xFF	; 255
    26aa:	16 c0       	rjmp	.+44     	; 0x26d8 <__floatsisf+0x6c>
    26ac:	88 23       	and	r24, r24
    26ae:	11 f0       	breq	.+4      	; 0x26b4 <__floatsisf+0x48>
    26b0:	96 e9       	ldi	r25, 0x96	; 150
    26b2:	11 c0       	rjmp	.+34     	; 0x26d6 <__floatsisf+0x6a>
    26b4:	77 23       	and	r23, r23
    26b6:	21 f0       	breq	.+8      	; 0x26c0 <__floatsisf+0x54>
    26b8:	9e e8       	ldi	r25, 0x8E	; 142
    26ba:	87 2f       	mov	r24, r23
    26bc:	76 2f       	mov	r23, r22
    26be:	05 c0       	rjmp	.+10     	; 0x26ca <__floatsisf+0x5e>
    26c0:	66 23       	and	r22, r22
    26c2:	71 f0       	breq	.+28     	; 0x26e0 <__floatsisf+0x74>
    26c4:	96 e8       	ldi	r25, 0x86	; 134
    26c6:	86 2f       	mov	r24, r22
    26c8:	70 e0       	ldi	r23, 0x00	; 0
    26ca:	60 e0       	ldi	r22, 0x00	; 0
    26cc:	2a f0       	brmi	.+10     	; 0x26d8 <__floatsisf+0x6c>
    26ce:	9a 95       	dec	r25
    26d0:	66 0f       	add	r22, r22
    26d2:	77 1f       	adc	r23, r23
    26d4:	88 1f       	adc	r24, r24
    26d6:	da f7       	brpl	.-10     	; 0x26ce <__floatsisf+0x62>
    26d8:	88 0f       	add	r24, r24
    26da:	96 95       	lsr	r25
    26dc:	87 95       	ror	r24
    26de:	97 f9       	bld	r25, 7
    26e0:	08 95       	ret

000026e2 <__fp_inf>:
    26e2:	97 f9       	bld	r25, 7
    26e4:	9f 67       	ori	r25, 0x7F	; 127
    26e6:	80 e8       	ldi	r24, 0x80	; 128
    26e8:	70 e0       	ldi	r23, 0x00	; 0
    26ea:	60 e0       	ldi	r22, 0x00	; 0
    26ec:	08 95       	ret

000026ee <__fp_nan>:
    26ee:	9f ef       	ldi	r25, 0xFF	; 255
    26f0:	80 ec       	ldi	r24, 0xC0	; 192
    26f2:	08 95       	ret

000026f4 <__fp_pscA>:
    26f4:	00 24       	eor	r0, r0
    26f6:	0a 94       	dec	r0
    26f8:	16 16       	cp	r1, r22
    26fa:	17 06       	cpc	r1, r23
    26fc:	18 06       	cpc	r1, r24
    26fe:	09 06       	cpc	r0, r25
    2700:	08 95       	ret

00002702 <__fp_pscB>:
    2702:	00 24       	eor	r0, r0
    2704:	0a 94       	dec	r0
    2706:	12 16       	cp	r1, r18
    2708:	13 06       	cpc	r1, r19
    270a:	14 06       	cpc	r1, r20
    270c:	05 06       	cpc	r0, r21
    270e:	08 95       	ret

00002710 <__fp_round>:
    2710:	09 2e       	mov	r0, r25
    2712:	03 94       	inc	r0
    2714:	00 0c       	add	r0, r0
    2716:	11 f4       	brne	.+4      	; 0x271c <__fp_round+0xc>
    2718:	88 23       	and	r24, r24
    271a:	52 f0       	brmi	.+20     	; 0x2730 <__fp_round+0x20>
    271c:	bb 0f       	add	r27, r27
    271e:	40 f4       	brcc	.+16     	; 0x2730 <__fp_round+0x20>
    2720:	bf 2b       	or	r27, r31
    2722:	11 f4       	brne	.+4      	; 0x2728 <__fp_round+0x18>
    2724:	60 ff       	sbrs	r22, 0
    2726:	04 c0       	rjmp	.+8      	; 0x2730 <__fp_round+0x20>
    2728:	6f 5f       	subi	r22, 0xFF	; 255
    272a:	7f 4f       	sbci	r23, 0xFF	; 255
    272c:	8f 4f       	sbci	r24, 0xFF	; 255
    272e:	9f 4f       	sbci	r25, 0xFF	; 255
    2730:	08 95       	ret

00002732 <__fp_split3>:
    2732:	57 fd       	sbrc	r21, 7
    2734:	90 58       	subi	r25, 0x80	; 128
    2736:	44 0f       	add	r20, r20
    2738:	55 1f       	adc	r21, r21
    273a:	59 f0       	breq	.+22     	; 0x2752 <__fp_splitA+0x10>
    273c:	5f 3f       	cpi	r21, 0xFF	; 255
    273e:	71 f0       	breq	.+28     	; 0x275c <__fp_splitA+0x1a>
    2740:	47 95       	ror	r20

00002742 <__fp_splitA>:
    2742:	88 0f       	add	r24, r24
    2744:	97 fb       	bst	r25, 7
    2746:	99 1f       	adc	r25, r25
    2748:	61 f0       	breq	.+24     	; 0x2762 <__fp_splitA+0x20>
    274a:	9f 3f       	cpi	r25, 0xFF	; 255
    274c:	79 f0       	breq	.+30     	; 0x276c <__fp_splitA+0x2a>
    274e:	87 95       	ror	r24
    2750:	08 95       	ret
    2752:	12 16       	cp	r1, r18
    2754:	13 06       	cpc	r1, r19
    2756:	14 06       	cpc	r1, r20
    2758:	55 1f       	adc	r21, r21
    275a:	f2 cf       	rjmp	.-28     	; 0x2740 <__fp_split3+0xe>
    275c:	46 95       	lsr	r20
    275e:	f1 df       	rcall	.-30     	; 0x2742 <__fp_splitA>
    2760:	08 c0       	rjmp	.+16     	; 0x2772 <__fp_splitA+0x30>
    2762:	16 16       	cp	r1, r22
    2764:	17 06       	cpc	r1, r23
    2766:	18 06       	cpc	r1, r24
    2768:	99 1f       	adc	r25, r25
    276a:	f1 cf       	rjmp	.-30     	; 0x274e <__fp_splitA+0xc>
    276c:	86 95       	lsr	r24
    276e:	71 05       	cpc	r23, r1
    2770:	61 05       	cpc	r22, r1
    2772:	08 94       	sec
    2774:	08 95       	ret

00002776 <__fp_zero>:
    2776:	e8 94       	clt

00002778 <__fp_szero>:
    2778:	bb 27       	eor	r27, r27
    277a:	66 27       	eor	r22, r22
    277c:	77 27       	eor	r23, r23
    277e:	cb 01       	movw	r24, r22
    2780:	97 f9       	bld	r25, 7
    2782:	08 95       	ret

00002784 <__mulsf3>:
    2784:	0b d0       	rcall	.+22     	; 0x279c <__mulsf3x>
    2786:	c4 cf       	rjmp	.-120    	; 0x2710 <__fp_round>
    2788:	b5 df       	rcall	.-150    	; 0x26f4 <__fp_pscA>
    278a:	28 f0       	brcs	.+10     	; 0x2796 <__mulsf3+0x12>
    278c:	ba df       	rcall	.-140    	; 0x2702 <__fp_pscB>
    278e:	18 f0       	brcs	.+6      	; 0x2796 <__mulsf3+0x12>
    2790:	95 23       	and	r25, r21
    2792:	09 f0       	breq	.+2      	; 0x2796 <__mulsf3+0x12>
    2794:	a6 cf       	rjmp	.-180    	; 0x26e2 <__fp_inf>
    2796:	ab cf       	rjmp	.-170    	; 0x26ee <__fp_nan>
    2798:	11 24       	eor	r1, r1
    279a:	ee cf       	rjmp	.-36     	; 0x2778 <__fp_szero>

0000279c <__mulsf3x>:
    279c:	ca df       	rcall	.-108    	; 0x2732 <__fp_split3>
    279e:	a0 f3       	brcs	.-24     	; 0x2788 <__mulsf3+0x4>

000027a0 <__mulsf3_pse>:
    27a0:	95 9f       	mul	r25, r21
    27a2:	d1 f3       	breq	.-12     	; 0x2798 <__mulsf3+0x14>
    27a4:	95 0f       	add	r25, r21
    27a6:	50 e0       	ldi	r21, 0x00	; 0
    27a8:	55 1f       	adc	r21, r21
    27aa:	62 9f       	mul	r22, r18
    27ac:	f0 01       	movw	r30, r0
    27ae:	72 9f       	mul	r23, r18
    27b0:	bb 27       	eor	r27, r27
    27b2:	f0 0d       	add	r31, r0
    27b4:	b1 1d       	adc	r27, r1
    27b6:	63 9f       	mul	r22, r19
    27b8:	aa 27       	eor	r26, r26
    27ba:	f0 0d       	add	r31, r0
    27bc:	b1 1d       	adc	r27, r1
    27be:	aa 1f       	adc	r26, r26
    27c0:	64 9f       	mul	r22, r20
    27c2:	66 27       	eor	r22, r22
    27c4:	b0 0d       	add	r27, r0
    27c6:	a1 1d       	adc	r26, r1
    27c8:	66 1f       	adc	r22, r22
    27ca:	82 9f       	mul	r24, r18
    27cc:	22 27       	eor	r18, r18
    27ce:	b0 0d       	add	r27, r0
    27d0:	a1 1d       	adc	r26, r1
    27d2:	62 1f       	adc	r22, r18
    27d4:	73 9f       	mul	r23, r19
    27d6:	b0 0d       	add	r27, r0
    27d8:	a1 1d       	adc	r26, r1
    27da:	62 1f       	adc	r22, r18
    27dc:	83 9f       	mul	r24, r19
    27de:	a0 0d       	add	r26, r0
    27e0:	61 1d       	adc	r22, r1
    27e2:	22 1f       	adc	r18, r18
    27e4:	74 9f       	mul	r23, r20
    27e6:	33 27       	eor	r19, r19
    27e8:	a0 0d       	add	r26, r0
    27ea:	61 1d       	adc	r22, r1
    27ec:	23 1f       	adc	r18, r19
    27ee:	84 9f       	mul	r24, r20
    27f0:	60 0d       	add	r22, r0
    27f2:	21 1d       	adc	r18, r1
    27f4:	82 2f       	mov	r24, r18
    27f6:	76 2f       	mov	r23, r22
    27f8:	6a 2f       	mov	r22, r26
    27fa:	11 24       	eor	r1, r1
    27fc:	9f 57       	subi	r25, 0x7F	; 127
    27fe:	50 40       	sbci	r21, 0x00	; 0
    2800:	8a f0       	brmi	.+34     	; 0x2824 <__mulsf3_pse+0x84>
    2802:	e1 f0       	breq	.+56     	; 0x283c <__mulsf3_pse+0x9c>
    2804:	88 23       	and	r24, r24
    2806:	4a f0       	brmi	.+18     	; 0x281a <__mulsf3_pse+0x7a>
    2808:	ee 0f       	add	r30, r30
    280a:	ff 1f       	adc	r31, r31
    280c:	bb 1f       	adc	r27, r27
    280e:	66 1f       	adc	r22, r22
    2810:	77 1f       	adc	r23, r23
    2812:	88 1f       	adc	r24, r24
    2814:	91 50       	subi	r25, 0x01	; 1
    2816:	50 40       	sbci	r21, 0x00	; 0
    2818:	a9 f7       	brne	.-22     	; 0x2804 <__mulsf3_pse+0x64>
    281a:	9e 3f       	cpi	r25, 0xFE	; 254
    281c:	51 05       	cpc	r21, r1
    281e:	70 f0       	brcs	.+28     	; 0x283c <__mulsf3_pse+0x9c>
    2820:	60 cf       	rjmp	.-320    	; 0x26e2 <__fp_inf>
    2822:	aa cf       	rjmp	.-172    	; 0x2778 <__fp_szero>
    2824:	5f 3f       	cpi	r21, 0xFF	; 255
    2826:	ec f3       	brlt	.-6      	; 0x2822 <__mulsf3_pse+0x82>
    2828:	98 3e       	cpi	r25, 0xE8	; 232
    282a:	dc f3       	brlt	.-10     	; 0x2822 <__mulsf3_pse+0x82>
    282c:	86 95       	lsr	r24
    282e:	77 95       	ror	r23
    2830:	67 95       	ror	r22
    2832:	b7 95       	ror	r27
    2834:	f7 95       	ror	r31
    2836:	e7 95       	ror	r30
    2838:	9f 5f       	subi	r25, 0xFF	; 255
    283a:	c1 f7       	brne	.-16     	; 0x282c <__mulsf3_pse+0x8c>
    283c:	fe 2b       	or	r31, r30
    283e:	88 0f       	add	r24, r24
    2840:	91 1d       	adc	r25, r1
    2842:	96 95       	lsr	r25
    2844:	87 95       	ror	r24
    2846:	97 f9       	bld	r25, 7
    2848:	08 95       	ret

0000284a <memcpy_P>:
    284a:	fb 01       	movw	r30, r22
    284c:	dc 01       	movw	r26, r24
    284e:	02 c0       	rjmp	.+4      	; 0x2854 <memcpy_P+0xa>
    2850:	05 90       	lpm	r0, Z+
    2852:	0d 92       	st	X+, r0
    2854:	41 50       	subi	r20, 0x01	; 1
    2856:	50 40       	sbci	r21, 0x00	; 0
    2858:	d8 f7       	brcc	.-10     	; 0x2850 <memcpy_P+0x6>
    285a:	08 95       	ret

0000285c <_exit>:
    285c:	f8 94       	cli

0000285e <__stop_program>:
    285e:	ff cf       	rjmp	.-2      	; 0x285e <__stop_program>
